
a.out:     file format elf64-x86-64


Disassembly of section .init:

0000000000402000 <_init>:
  402000:	f3 0f 1e fa          	endbr64 
  402004:	48 83 ec 08          	sub    $0x8,%rsp
  402008:	48 8b 05 d9 bf 00 00 	mov    0xbfd9(%rip),%rax        # 40dfe8 <__gmon_start__>
  40200f:	48 85 c0             	test   %rax,%rax
  402012:	74 02                	je     402016 <_init+0x16>
  402014:	ff d0                	callq  *%rax
  402016:	48 83 c4 08          	add    $0x8,%rsp
  40201a:	c3                   	retq   

Disassembly of section .plt:

0000000000402020 <.plt>:
  402020:	ff 35 e2 bf 00 00    	pushq  0xbfe2(%rip)        # 40e008 <_GLOBAL_OFFSET_TABLE_+0x8>
  402026:	ff 25 e4 bf 00 00    	jmpq   *0xbfe4(%rip)        # 40e010 <_GLOBAL_OFFSET_TABLE_+0x10>
  40202c:	0f 1f 40 00          	nopl   0x0(%rax)

0000000000402030 <__printf_chk@plt>:
  402030:	ff 25 e2 bf 00 00    	jmpq   *0xbfe2(%rip)        # 40e018 <__printf_chk@GLIBC_2.3.4>
  402036:	68 00 00 00 00       	pushq  $0x0
  40203b:	e9 e0 ff ff ff       	jmpq   402020 <.plt>

0000000000402040 <_Znam@plt>:
  402040:	ff 25 da bf 00 00    	jmpq   *0xbfda(%rip)        # 40e020 <_Znam@GLIBCXX_3.4>
  402046:	68 01 00 00 00       	pushq  $0x1
  40204b:	e9 d0 ff ff ff       	jmpq   402020 <.plt>

0000000000402050 <__errno_location@plt>:
  402050:	ff 25 d2 bf 00 00    	jmpq   *0xbfd2(%rip)        # 40e028 <__errno_location@GLIBC_2.2.5>
  402056:	68 02 00 00 00       	pushq  $0x2
  40205b:	e9 c0 ff ff ff       	jmpq   402020 <.plt>

0000000000402060 <_ZNSt6chrono3_V212system_clock3nowEv@plt>:
  402060:	ff 25 ca bf 00 00    	jmpq   *0xbfca(%rip)        # 40e030 <_ZNSt6chrono3_V212system_clock3nowEv@GLIBCXX_3.4.19>
  402066:	68 03 00 00 00       	pushq  $0x3
  40206b:	e9 b0 ff ff ff       	jmpq   402020 <.plt>

0000000000402070 <_ZSt17__throw_bad_allocv@plt>:
  402070:	ff 25 c2 bf 00 00    	jmpq   *0xbfc2(%rip)        # 40e038 <_ZSt17__throw_bad_allocv@GLIBCXX_3.4>
  402076:	68 04 00 00 00       	pushq  $0x4
  40207b:	e9 a0 ff ff ff       	jmpq   402020 <.plt>

0000000000402080 <strchr@plt>:
  402080:	ff 25 ba bf 00 00    	jmpq   *0xbfba(%rip)        # 40e040 <strchr@GLIBC_2.2.5>
  402086:	68 05 00 00 00       	pushq  $0x5
  40208b:	e9 90 ff ff ff       	jmpq   402020 <.plt>

0000000000402090 <strlen@plt>:
  402090:	ff 25 b2 bf 00 00    	jmpq   *0xbfb2(%rip)        # 40e048 <strlen@GLIBC_2.2.5>
  402096:	68 06 00 00 00       	pushq  $0x6
  40209b:	e9 80 ff ff ff       	jmpq   402020 <.plt>

00000000004020a0 <__strncat_chk@plt>:
  4020a0:	ff 25 aa bf 00 00    	jmpq   *0xbfaa(%rip)        # 40e050 <__strncat_chk@GLIBC_2.3.4>
  4020a6:	68 07 00 00 00       	pushq  $0x7
  4020ab:	e9 70 ff ff ff       	jmpq   402020 <.plt>

00000000004020b0 <_ZSt4endlIcSt11char_traitsIcEERSt13basic_ostreamIT_T0_ES6_@plt>:
  4020b0:	ff 25 a2 bf 00 00    	jmpq   *0xbfa2(%rip)        # 40e058 <_ZSt4endlIcSt11char_traitsIcEERSt13basic_ostreamIT_T0_ES6_@GLIBCXX_3.4>
  4020b6:	68 08 00 00 00       	pushq  $0x8
  4020bb:	e9 60 ff ff ff       	jmpq   402020 <.plt>

00000000004020c0 <catopen@plt>:
  4020c0:	ff 25 9a bf 00 00    	jmpq   *0xbf9a(%rip)        # 40e060 <catopen@GLIBC_2.2.5>
  4020c6:	68 09 00 00 00       	pushq  $0x9
  4020cb:	e9 50 ff ff ff       	jmpq   402020 <.plt>

00000000004020d0 <_ZSt20__throw_length_errorPKc@plt>:
  4020d0:	ff 25 92 bf 00 00    	jmpq   *0xbf92(%rip)        # 40e068 <_ZSt20__throw_length_errorPKc@GLIBCXX_3.4>
  4020d6:	68 0a 00 00 00       	pushq  $0xa
  4020db:	e9 40 ff ff ff       	jmpq   402020 <.plt>

00000000004020e0 <memset@plt>:
  4020e0:	ff 25 8a bf 00 00    	jmpq   *0xbf8a(%rip)        # 40e070 <memset@GLIBC_2.2.5>
  4020e6:	68 0b 00 00 00       	pushq  $0xb
  4020eb:	e9 30 ff ff ff       	jmpq   402020 <.plt>

00000000004020f0 <__strncpy_chk@plt>:
  4020f0:	ff 25 82 bf 00 00    	jmpq   *0xbf82(%rip)        # 40e078 <__strncpy_chk@GLIBC_2.3.4>
  4020f6:	68 0c 00 00 00       	pushq  $0xc
  4020fb:	e9 20 ff ff ff       	jmpq   402020 <.plt>

0000000000402100 <__snprintf_chk@plt>:
  402100:	ff 25 7a bf 00 00    	jmpq   *0xbf7a(%rip)        # 40e080 <__snprintf_chk@GLIBC_2.3.4>
  402106:	68 0d 00 00 00       	pushq  $0xd
  40210b:	e9 10 ff ff ff       	jmpq   402020 <.plt>

0000000000402110 <_ZNSolsEf@plt>:
  402110:	ff 25 72 bf 00 00    	jmpq   *0xbf72(%rip)        # 40e088 <_ZNSolsEf@GLIBCXX_3.4>
  402116:	68 0e 00 00 00       	pushq  $0xe
  40211b:	e9 00 ff ff ff       	jmpq   402020 <.plt>

0000000000402120 <__vsnprintf_chk@plt>:
  402120:	ff 25 6a bf 00 00    	jmpq   *0xbf6a(%rip)        # 40e090 <__vsnprintf_chk@GLIBC_2.3.4>
  402126:	68 0f 00 00 00       	pushq  $0xf
  40212b:	e9 f0 fe ff ff       	jmpq   402020 <.plt>

0000000000402130 <__cxa_atexit@plt>:
  402130:	ff 25 62 bf 00 00    	jmpq   *0xbf62(%rip)        # 40e098 <__cxa_atexit@GLIBC_2.2.5>
  402136:	68 10 00 00 00       	pushq  $0x10
  40213b:	e9 e0 fe ff ff       	jmpq   402020 <.plt>

0000000000402140 <_ZNSt13random_device7_M_finiEv@plt>:
  402140:	ff 25 5a bf 00 00    	jmpq   *0xbf5a(%rip)        # 40e0a0 <_ZNSt13random_device7_M_finiEv@GLIBCXX_3.4.18>
  402146:	68 11 00 00 00       	pushq  $0x11
  40214b:	e9 d0 fe ff ff       	jmpq   402020 <.plt>

0000000000402150 <_ZdlPv@plt>:
  402150:	ff 25 52 bf 00 00    	jmpq   *0xbf52(%rip)        # 40e0a8 <_ZdlPv@GLIBCXX_3.4>
  402156:	68 12 00 00 00       	pushq  $0x12
  40215b:	e9 c0 fe ff ff       	jmpq   402020 <.plt>

0000000000402160 <_ZStlsISt11char_traitsIcEERSt13basic_ostreamIcT_ES5_PKc@plt>:
  402160:	ff 25 4a bf 00 00    	jmpq   *0xbf4a(%rip)        # 40e0b0 <_ZStlsISt11char_traitsIcEERSt13basic_ostreamIcT_ES5_PKc@GLIBCXX_3.4>
  402166:	68 13 00 00 00       	pushq  $0x13
  40216b:	e9 b0 fe ff ff       	jmpq   402020 <.plt>

0000000000402170 <_Znwm@plt>:
  402170:	ff 25 42 bf 00 00    	jmpq   *0xbf42(%rip)        # 40e0b8 <_Znwm@GLIBCXX_3.4>
  402176:	68 14 00 00 00       	pushq  $0x14
  40217b:	e9 a0 fe ff ff       	jmpq   402020 <.plt>

0000000000402180 <_ZNSolsEPFRSoS_E@plt>:
  402180:	ff 25 3a bf 00 00    	jmpq   *0xbf3a(%rip)        # 40e0c0 <_ZNSolsEPFRSoS_E@GLIBCXX_3.4>
  402186:	68 15 00 00 00       	pushq  $0x15
  40218b:	e9 90 fe ff ff       	jmpq   402020 <.plt>

0000000000402190 <catgets@plt>:
  402190:	ff 25 32 bf 00 00    	jmpq   *0xbf32(%rip)        # 40e0c8 <catgets@GLIBC_2.2.5>
  402196:	68 16 00 00 00       	pushq  $0x16
  40219b:	e9 80 fe ff ff       	jmpq   402020 <.plt>

00000000004021a0 <__stack_chk_fail@plt>:
  4021a0:	ff 25 2a bf 00 00    	jmpq   *0xbf2a(%rip)        # 40e0d0 <__stack_chk_fail@GLIBC_2.4>
  4021a6:	68 17 00 00 00       	pushq  $0x17
  4021ab:	e9 70 fe ff ff       	jmpq   402020 <.plt>

00000000004021b0 <fputs@plt>:
  4021b0:	ff 25 22 bf 00 00    	jmpq   *0xbf22(%rip)        # 40e0d8 <fputs@GLIBC_2.2.5>
  4021b6:	68 18 00 00 00       	pushq  $0x18
  4021bb:	e9 60 fe ff ff       	jmpq   402020 <.plt>

00000000004021c0 <exit@plt>:
  4021c0:	ff 25 1a bf 00 00    	jmpq   *0xbf1a(%rip)        # 40e0e0 <exit@GLIBC_2.2.5>
  4021c6:	68 19 00 00 00       	pushq  $0x19
  4021cb:	e9 50 fe ff ff       	jmpq   402020 <.plt>

00000000004021d0 <getenv@plt>:
  4021d0:	ff 25 12 bf 00 00    	jmpq   *0xbf12(%rip)        # 40e0e8 <getenv@GLIBC_2.2.5>
  4021d6:	68 1a 00 00 00       	pushq  $0x1a
  4021db:	e9 40 fe ff ff       	jmpq   402020 <.plt>

00000000004021e0 <__cxa_call_unexpected@plt>:
  4021e0:	ff 25 0a bf 00 00    	jmpq   *0xbf0a(%rip)        # 40e0f0 <__cxa_call_unexpected@CXXABI_1.3>
  4021e6:	68 1b 00 00 00       	pushq  $0x1b
  4021eb:	e9 30 fe ff ff       	jmpq   402020 <.plt>

00000000004021f0 <_ZNSt13random_device9_M_getvalEv@plt>:
  4021f0:	ff 25 02 bf 00 00    	jmpq   *0xbf02(%rip)        # 40e0f8 <_ZNSt13random_device9_M_getvalEv@GLIBCXX_3.4.18>
  4021f6:	68 1c 00 00 00       	pushq  $0x1c
  4021fb:	e9 20 fe ff ff       	jmpq   402020 <.plt>

0000000000402200 <setenv@plt>:
  402200:	ff 25 fa be 00 00    	jmpq   *0xbefa(%rip)        # 40e100 <setenv@GLIBC_2.2.5>
  402206:	68 1d 00 00 00       	pushq  $0x1d
  40220b:	e9 10 fe ff ff       	jmpq   402020 <.plt>

0000000000402210 <_ZNSt8ios_base4InitC1Ev@plt>:
  402210:	ff 25 f2 be 00 00    	jmpq   *0xbef2(%rip)        # 40e108 <_ZNSt8ios_base4InitC1Ev@GLIBCXX_3.4>
  402216:	68 1e 00 00 00       	pushq  $0x1e
  40221b:	e9 00 fe ff ff       	jmpq   402020 <.plt>

0000000000402220 <__fprintf_chk@plt>:
  402220:	ff 25 ea be 00 00    	jmpq   *0xbeea(%rip)        # 40e110 <__fprintf_chk@GLIBC_2.3.4>
  402226:	68 1f 00 00 00       	pushq  $0x1f
  40222b:	e9 f0 fd ff ff       	jmpq   402020 <.plt>

0000000000402230 <__gxx_personality_v0@plt>:
  402230:	ff 25 e2 be 00 00    	jmpq   *0xbee2(%rip)        # 40e118 <__gxx_personality_v0@CXXABI_1.3>
  402236:	68 20 00 00 00       	pushq  $0x20
  40223b:	e9 e0 fd ff ff       	jmpq   402020 <.plt>

0000000000402240 <_ZNSt13random_device7_M_initERKNSt7__cxx1112basic_stringIcSt11char_traitsIcESaIcEEE@plt>:
  402240:	ff 25 da be 00 00    	jmpq   *0xbeda(%rip)        # 40e120 <_ZNSt13random_device7_M_initERKNSt7__cxx1112basic_stringIcSt11char_traitsIcESaIcEEE@GLIBCXX_3.4.21>
  402246:	68 21 00 00 00       	pushq  $0x21
  40224b:	e9 d0 fd ff ff       	jmpq   402020 <.plt>

0000000000402250 <_Unwind_Resume@plt>:
  402250:	ff 25 d2 be 00 00    	jmpq   *0xbed2(%rip)        # 40e128 <_Unwind_Resume@GCC_3.0>
  402256:	68 22 00 00 00       	pushq  $0x22
  40225b:	e9 c0 fd ff ff       	jmpq   402020 <.plt>

0000000000402260 <_ZNSolsEd@plt>:
  402260:	ff 25 ca be 00 00    	jmpq   *0xbeca(%rip)        # 40e130 <_ZNSolsEd@GLIBCXX_3.4>
  402266:	68 23 00 00 00       	pushq  $0x23
  40226b:	e9 b0 fd ff ff       	jmpq   402020 <.plt>

0000000000402270 <_ZNSt8ios_base4InitD1Ev@plt>:
  402270:	ff 25 c2 be 00 00    	jmpq   *0xbec2(%rip)        # 40e138 <_ZNSt8ios_base4InitD1Ev@GLIBCXX_3.4>
  402276:	68 24 00 00 00       	pushq  $0x24
  40227b:	e9 a0 fd ff ff       	jmpq   402020 <.plt>

Disassembly of section .plt.got:

0000000000402280 <__cxa_finalize@plt>:
  402280:	ff 25 3a bd 00 00    	jmpq   *0xbd3a(%rip)        # 40dfc0 <__cxa_finalize@GLIBC_2.2.5>
  402286:	66 90                	xchg   %ax,%ax

Disassembly of section .text:

0000000000402290 <_start>:
  402290:	f3 0f 1e fa          	endbr64 
  402294:	31 ed                	xor    %ebp,%ebp
  402296:	49 89 d1             	mov    %rdx,%r9
  402299:	5e                   	pop    %rsi
  40229a:	48 89 e2             	mov    %rsp,%rdx
  40229d:	48 83 e4 f0          	and    $0xfffffffffffffff0,%rsp
  4022a1:	50                   	push   %rax
  4022a2:	54                   	push   %rsp
  4022a3:	49 c7 c0 30 62 40 00 	mov    $0x406230,%r8
  4022aa:	48 c7 c1 c0 61 40 00 	mov    $0x4061c0,%rcx
  4022b1:	48 c7 c7 80 23 40 00 	mov    $0x402380,%rdi
  4022b8:	ff 15 22 bd 00 00    	callq  *0xbd22(%rip)        # 40dfe0 <__libc_start_main@GLIBC_2.2.5>
  4022be:	f4                   	hlt    
  4022bf:	90                   	nop

00000000004022c0 <deregister_tm_clones>:
  4022c0:	48 8d 3d e9 be 00 00 	lea    0xbee9(%rip),%rdi        # 40e1b0 <__TMC_END__>
  4022c7:	48 8d 05 e2 be 00 00 	lea    0xbee2(%rip),%rax        # 40e1b0 <__TMC_END__>
  4022ce:	48 39 f8             	cmp    %rdi,%rax
  4022d1:	74 15                	je     4022e8 <deregister_tm_clones+0x28>
  4022d3:	48 8b 05 fe bc 00 00 	mov    0xbcfe(%rip),%rax        # 40dfd8 <_ITM_deregisterTMCloneTable>
  4022da:	48 85 c0             	test   %rax,%rax
  4022dd:	74 09                	je     4022e8 <deregister_tm_clones+0x28>
  4022df:	ff e0                	jmpq   *%rax
  4022e1:	0f 1f 80 00 00 00 00 	nopl   0x0(%rax)
  4022e8:	c3                   	retq   
  4022e9:	0f 1f 80 00 00 00 00 	nopl   0x0(%rax)

00000000004022f0 <register_tm_clones>:
  4022f0:	48 8d 3d b9 be 00 00 	lea    0xbeb9(%rip),%rdi        # 40e1b0 <__TMC_END__>
  4022f7:	48 8d 35 b2 be 00 00 	lea    0xbeb2(%rip),%rsi        # 40e1b0 <__TMC_END__>
  4022fe:	48 29 fe             	sub    %rdi,%rsi
  402301:	48 89 f0             	mov    %rsi,%rax
  402304:	48 c1 ee 3f          	shr    $0x3f,%rsi
  402308:	48 c1 f8 03          	sar    $0x3,%rax
  40230c:	48 01 c6             	add    %rax,%rsi
  40230f:	48 d1 fe             	sar    %rsi
  402312:	74 14                	je     402328 <register_tm_clones+0x38>
  402314:	48 8b 05 d5 bc 00 00 	mov    0xbcd5(%rip),%rax        # 40dff0 <_ITM_registerTMCloneTable>
  40231b:	48 85 c0             	test   %rax,%rax
  40231e:	74 08                	je     402328 <register_tm_clones+0x38>
  402320:	ff e0                	jmpq   *%rax
  402322:	66 0f 1f 44 00 00    	nopw   0x0(%rax,%rax,1)
  402328:	c3                   	retq   
  402329:	0f 1f 80 00 00 00 00 	nopl   0x0(%rax)

0000000000402330 <__do_global_dtors_aux>:
  402330:	f3 0f 1e fa          	endbr64 
  402334:	80 3d 95 bf 00 00 00 	cmpb   $0x0,0xbf95(%rip)        # 40e2d0 <completed.8061>
  40233b:	75 2b                	jne    402368 <__do_global_dtors_aux+0x38>
  40233d:	55                   	push   %rbp
  40233e:	48 83 3d 7a bc 00 00 	cmpq   $0x0,0xbc7a(%rip)        # 40dfc0 <__cxa_finalize@GLIBC_2.2.5>
  402345:	00 
  402346:	48 89 e5             	mov    %rsp,%rbp
  402349:	74 0c                	je     402357 <__do_global_dtors_aux+0x27>
  40234b:	48 8b 3d f6 bd 00 00 	mov    0xbdf6(%rip),%rdi        # 40e148 <__dso_handle>
  402352:	e8 29 ff ff ff       	callq  402280 <__cxa_finalize@plt>
  402357:	e8 64 ff ff ff       	callq  4022c0 <deregister_tm_clones>
  40235c:	c6 05 6d bf 00 00 01 	movb   $0x1,0xbf6d(%rip)        # 40e2d0 <completed.8061>
  402363:	5d                   	pop    %rbp
  402364:	c3                   	retq   
  402365:	0f 1f 00             	nopl   (%rax)
  402368:	c3                   	retq   
  402369:	0f 1f 80 00 00 00 00 	nopl   0x0(%rax)

0000000000402370 <frame_dummy>:
  402370:	f3 0f 1e fa          	endbr64 
  402374:	e9 77 ff ff ff       	jmpq   4022f0 <register_tm_clones>
  402379:	0f 1f 80 00 00 00 00 	nopl   0x0(%rax)

0000000000402380 <main>:
  402380:	55                   	push   %rbp
  402381:	48 89 e5             	mov    %rsp,%rbp
  402384:	48 83 e4 80          	and    $0xffffffffffffff80,%rsp
  402388:	53                   	push   %rbx
  402389:	48 83 ec 78          	sub    $0x78,%rsp
  40238d:	bf 03 00 00 00       	mov    $0x3,%edi
  402392:	48 be fe 9f 9d 19 64 	movabs $0x64199d9ffe,%rsi
  402399:	00 00 00 
  40239c:	e8 9f 20 00 00       	callq  404440 <__intel_new_feature_proc_init>
  4023a1:	c5 f8 ae 1c 24       	vstmxcsr (%rsp)
  4023a6:	be 00 04 00 00       	mov    $0x400,%esi
  4023ab:	48 8d 7c 24 28       	lea    0x28(%rsp),%rdi
  4023b0:	81 0c 24 40 80 00 00 	orl    $0x8040,(%rsp)
  4023b7:	48 8d 54 24 58       	lea    0x58(%rsp),%rdx
  4023bc:	c5 f8 ae 14 24       	vldmxcsr (%rsp)
  4023c1:	c7 02 00 00 00 00    	movl   $0x0,(%rdx)
  4023c7:	48 8d 4c 24 60       	lea    0x60(%rsp),%rcx
  4023cc:	e8 4f 09 00 00       	callq  402d20 <_ZNSt6vectorIfSaIfEEC1EmRKfRKS0_>
  4023d1:	be 00 04 00 00       	mov    $0x400,%esi
  4023d6:	48 8d 7c 24 40       	lea    0x40(%rsp),%rdi
  4023db:	c7 47 1c 00 00 80 3f 	movl   $0x3f800000,0x1c(%rdi)
  4023e2:	48 8d 54 24 5c       	lea    0x5c(%rsp),%rdx
  4023e7:	48 8d 4c 24 61       	lea    0x61(%rsp),%rcx
  4023ec:	e8 2f 09 00 00       	callq  402d20 <_ZNSt6vectorIfSaIfEEC1EmRKfRKS0_>
  4023f1:	bf 00 10 00 00       	mov    $0x1000,%edi
  4023f6:	e8 45 fc ff ff       	callq  402040 <_Znam@plt>
  4023fb:	48 89 c3             	mov    %rax,%rbx
  4023fe:	e8 5d fc ff ff       	callq  402060 <_ZNSt6chrono3_V212system_clock3nowEv@plt>
  402403:	48 89 04 24          	mov    %rax,(%rsp)
  402407:	48 89 df             	mov    %rbx,%rdi
  40240a:	33 f6                	xor    %esi,%esi
  40240c:	48 83 e7 1f          	and    $0x1f,%rdi
  402410:	48 b8 00 00 00 00 02 	movabs $0x200000000,%rax
  402417:	00 00 00 
  40241a:	41 89 f9             	mov    %edi,%r9d
  40241d:	41 89 f8             	mov    %edi,%r8d
  402420:	41 f7 d9             	neg    %r9d
  402423:	41 83 e0 03          	and    $0x3,%r8d
  402427:	41 83 c1 20          	add    $0x20,%r9d
  40242b:	41 c1 e9 02          	shr    $0x2,%r9d
  40242f:	48 8b 54 24 28       	mov    0x28(%rsp),%rdx
  402434:	45 89 ca             	mov    %r9d,%r10d
  402437:	48 8b 4c 24 40       	mov    0x40(%rsp),%rcx
  40243c:	4c 89 64 24 18       	mov    %r12,0x18(%rsp)
  402441:	4c 89 6c 24 20       	mov    %r13,0x20(%rsp)
  402446:	4c 89 74 24 08       	mov    %r14,0x8(%rsp)
  40244b:	4c 89 7c 24 10       	mov    %r15,0x10(%rsp)
  402450:	41 89 fe             	mov    %edi,%r14d
  402453:	45 85 c0             	test   %r8d,%r8d
  402456:	74 05                	je     40245d <main+0xdd>
  402458:	45 33 f6             	xor    %r14d,%r14d
  40245b:	eb 28                	jmp    402485 <main+0x105>
  40245d:	85 ff                	test   %edi,%edi
  40245f:	74 24                	je     402485 <main+0x105>
  402461:	45 89 ce             	mov    %r9d,%r14d
  402464:	45 33 db             	xor    %r11d,%r11d
  402467:	46 8b 24 9b          	mov    (%rbx,%r11,4),%r12d
  40246b:	c4 a1 7a 10 04 a2    	vmovss (%rdx,%r12,4),%xmm0
  402471:	c4 a1 7a 58 0c 99    	vaddss (%rcx,%r11,4),%xmm0,%xmm1
  402477:	49 ff c3             	inc    %r11
  40247a:	c4 a1 7a 11 0c a2    	vmovss %xmm1,(%rdx,%r12,4)
  402480:	4d 3b da             	cmp    %r10,%r11
  402483:	72 e2                	jb     402467 <main+0xe7>
  402485:	45 89 f5             	mov    %r14d,%r13d
  402488:	4c 8d 1c 10          	lea    (%rax,%rdx,1),%r11
  40248c:	41 f7 dd             	neg    %r13d
  40248f:	41 83 e5 0f          	and    $0xf,%r13d
  402493:	41 f7 dd             	neg    %r13d
  402496:	45 8d a5 00 04 00 00 	lea    0x400(%r13),%r12d
  40249d:	45 89 e7             	mov    %r12d,%r15d
  4024a0:	c4 a1 7e 6f 04 b3    	vmovdqu (%rbx,%r14,4),%ymm0
  4024a6:	c4 a1 7e 6f 4c b3 20 	vmovdqu 0x20(%rbx,%r14,4),%ymm1
  4024ad:	62 f1 7d 08 74 c8    	vpcmpeqb %xmm0,%xmm0,%k1
  4024b3:	62 f1 7d 08 74 d0    	vpcmpeqb %xmm0,%xmm0,%k2
  4024b9:	62 f1 7d 08 74 d8    	vpcmpeqb %xmm0,%xmm0,%k3
  4024bf:	62 f1 7d 08 74 e0    	vpcmpeqb %xmm0,%xmm0,%k4
  4024c5:	62 f1 7d 38 fe 25 71 	vpaddd 0x4b71(%rip){1to8},%ymm0,%ymm4        # 407040 <_IO_stdin_used+0x40>
  4024cc:	4b 00 00 
  4024cf:	62 f1 75 38 fe 35 67 	vpaddd 0x4b67(%rip){1to8},%ymm1,%ymm6        # 407040 <_IO_stdin_used+0x40>
  4024d6:	4b 00 00 
  4024d9:	c5 ec 57 d2          	vxorps %ymm2,%ymm2,%ymm2
  4024dd:	62 d2 7d 29 92 14 a3 	vgatherdps (%r11,%ymm4,4),%ymm2{%k1}
  4024e4:	c5 e4 57 db          	vxorps %ymm3,%ymm3,%ymm3
  4024e8:	c4 a1 6c 58 2c b1    	vaddps (%rcx,%r14,4),%ymm2,%ymm5
  4024ee:	62 d2 7d 2a 92 1c b3 	vgatherdps (%r11,%ymm6,4),%ymm3{%k2}
  4024f5:	62 d2 7d 2b a2 2c a3 	vscatterdps %ymm5,(%r11,%ymm4,4){%k3}
  4024fc:	c4 a1 64 58 7c b1 20 	vaddps 0x20(%rcx,%r14,4),%ymm3,%ymm7
  402503:	49 83 c6 10          	add    $0x10,%r14
  402507:	62 d2 7d 2c a2 3c b3 	vscatterdps %ymm7,(%r11,%ymm6,4){%k4}
  40250e:	4d 3b f7             	cmp    %r15,%r14
  402511:	72 8d                	jb     4024a0 <main+0x120>
  402513:	45 33 db             	xor    %r11d,%r11d
  402516:	45 8d b5 01 04 00 00 	lea    0x401(%r13),%r14d
  40251d:	41 81 fe 00 04 00 00 	cmp    $0x400,%r14d
  402524:	77 33                	ja     402559 <main+0x1d9>
  402526:	41 f7 dc             	neg    %r12d
  402529:	41 81 c4 00 04 00 00 	add    $0x400,%r12d
  402530:	47 8d b4 2b 00 04 00 	lea    0x400(%r11,%r13,1),%r14d
  402537:	00 
  402538:	41 ff c3             	inc    %r11d
  40253b:	4d 63 f6             	movslq %r14d,%r14
  40253e:	46 8b 3c b3          	mov    (%rbx,%r14,4),%r15d
  402542:	c4 a1 7a 10 04 ba    	vmovss (%rdx,%r15,4),%xmm0
  402548:	c4 a1 7a 58 0c b1    	vaddss (%rcx,%r14,4),%xmm0,%xmm1
  40254e:	c4 a1 7a 11 0c ba    	vmovss %xmm1,(%rdx,%r15,4)
  402554:	45 3b dc             	cmp    %r12d,%r11d
  402557:	72 d7                	jb     402530 <main+0x1b0>
  402559:	ff c6                	inc    %esi
  40255b:	81 fe 80 96 98 00    	cmp    $0x989680,%esi
  402561:	0f 82 e9 fe ff ff    	jb     402450 <main+0xd0>
  402567:	c5 f8 77             	vzeroupper 
  40256a:	4c 8b 64 24 18       	mov    0x18(%rsp),%r12
  40256f:	4c 8b 6c 24 20       	mov    0x20(%rsp),%r13
  402574:	4c 8b 74 24 08       	mov    0x8(%rsp),%r14
  402579:	4c 8b 7c 24 10       	mov    0x10(%rsp),%r15
  40257e:	e8 dd fa ff ff       	callq  402060 <_ZNSt6chrono3_V212system_clock3nowEv@plt>
  402583:	48 89 c2             	mov    %rax,%rdx
  402586:	48 8b 04 24          	mov    (%rsp),%rax
  40258a:	48 2b d0             	sub    %rax,%rdx
  40258d:	c5 f9 57 c0          	vxorpd %xmm0,%xmm0,%xmm0
  402591:	bf c0 e1 40 00       	mov    $0x40e1c0,%edi
  402596:	c4 e1 fb 2a c2       	vcvtsi2sd %rdx,%xmm0,%xmm0
  40259b:	c5 fb 5e 05 95 4a 00 	vdivsd 0x4a95(%rip),%xmm0,%xmm0        # 407038 <_IO_stdin_used+0x38>
  4025a2:	00 
  4025a3:	e8 b8 fc ff ff       	callq  402260 <_ZNSolsEd@plt>
  4025a8:	48 89 c7             	mov    %rax,%rdi
  4025ab:	be 50 70 40 00       	mov    $0x407050,%esi
  4025b0:	e8 ab fb ff ff       	callq  402160 <_ZStlsISt11char_traitsIcEERSt13basic_ostreamIcT_ES5_PKc@plt>
  4025b5:	48 89 c7             	mov    %rax,%rdi
  4025b8:	be b0 20 40 00       	mov    $0x4020b0,%esi
  4025bd:	e8 be fb ff ff       	callq  402180 <_ZNSolsEPFRSoS_E@plt>
  4025c2:	48 8b 44 24 28       	mov    0x28(%rsp),%rax
  4025c7:	bf c0 e1 40 00       	mov    $0x40e1c0,%edi
  4025cc:	c5 fa 10 40 28       	vmovss 0x28(%rax),%xmm0
  4025d1:	e8 3a fb ff ff       	callq  402110 <_ZNSolsEf@plt>
  4025d6:	48 89 c7             	mov    %rax,%rdi
  4025d9:	be b0 20 40 00       	mov    $0x4020b0,%esi
  4025de:	e8 9d fb ff ff       	callq  402180 <_ZNSolsEPFRSoS_E@plt>
  4025e3:	48 8b 7c 24 40       	mov    0x40(%rsp),%rdi
  4025e8:	48 85 ff             	test   %rdi,%rdi
  4025eb:	74 05                	je     4025f2 <main+0x272>
  4025ed:	e8 5e fb ff ff       	callq  402150 <_ZdlPv@plt>
  4025f2:	48 8b 7c 24 28       	mov    0x28(%rsp),%rdi
  4025f7:	48 85 ff             	test   %rdi,%rdi
  4025fa:	74 05                	je     402601 <main+0x281>
  4025fc:	e8 4f fb ff ff       	callq  402150 <_ZdlPv@plt>
  402601:	33 c0                	xor    %eax,%eax
  402603:	48 83 c4 78          	add    $0x78,%rsp
  402607:	5b                   	pop    %rbx
  402608:	48 89 ec             	mov    %rbp,%rsp
  40260b:	5d                   	pop    %rbp
  40260c:	c3                   	retq   
  40260d:	48 89 04 24          	mov    %rax,(%rsp)
  402611:	48 8d 7c 24 40       	lea    0x40(%rsp),%rdi
  402616:	e8 f5 06 00 00       	callq  402d10 <_ZNSt6vectorIfSaIfEED1Ev>
  40261b:	48 8d 7c 24 28       	lea    0x28(%rsp),%rdi
  402620:	e8 eb 06 00 00       	callq  402d10 <_ZNSt6vectorIfSaIfEED1Ev>
  402625:	48 8b 3c 24          	mov    (%rsp),%rdi
  402629:	e8 22 fc ff ff       	callq  402250 <_Unwind_Resume@plt>
  40262e:	48 89 04 24          	mov    %rax,(%rsp)
  402632:	48 8d 7c 24 61       	lea    0x61(%rsp),%rdi
  402637:	e8 74 08 00 00       	callq  402eb0 <_ZNSaIfED1Ev>
  40263c:	eb dd                	jmp    40261b <main+0x29b>
  40263e:	48 89 04 24          	mov    %rax,(%rsp)
  402642:	48 8d 7c 24 60       	lea    0x60(%rsp),%rdi
  402647:	e8 64 08 00 00       	callq  402eb0 <_ZNSaIfED1Ev>
  40264c:	eb d7                	jmp    402625 <main+0x2a5>
  40264e:	66 90                	xchg   %ax,%ax

0000000000402650 <_Z10prepareSmpPf>:
  402650:	41 54                	push   %r12
  402652:	41 55                	push   %r13
  402654:	41 56                	push   %r14
  402656:	41 57                	push   %r15
  402658:	53                   	push   %rbx
  402659:	48 81 ec c0 13 00 00 	sub    $0x13c0,%rsp
  402660:	49 89 ff             	mov    %rdi,%r15
  402663:	8b 05 c7 49 00 00    	mov    0x49c7(%rip),%eax        # 407030 <_IO_stdin_used+0x30>
  402669:	48 8d 9c 24 a0 13 00 	lea    0x13a0(%rsp),%rbx
  402670:	00 
  402671:	48 89 5b f0          	mov    %rbx,-0x10(%rbx)
  402675:	48 c7 04 24 07 00 00 	movq   $0x7,(%rsp)
  40267c:	00 
  40267d:	89 03                	mov    %eax,(%rbx)
  40267f:	0f b7 15 ae 49 00 00 	movzwl 0x49ae(%rip),%edx        # 407034 <_IO_stdin_used+0x34>
  402686:	66 89 53 04          	mov    %dx,0x4(%rbx)
  40268a:	8a 0d a6 49 00 00    	mov    0x49a6(%rip),%cl        # 407036 <_IO_stdin_used+0x36>
  402690:	88 4b 06             	mov    %cl,0x6(%rbx)
  402693:	48 8b 84 24 90 13 00 	mov    0x1390(%rsp),%rax
  40269a:	00 
  40269b:	48 8d 7c 24 08       	lea    0x8(%rsp),%rdi
  4026a0:	48 8b 14 24          	mov    (%rsp),%rdx
  4026a4:	48 8d b4 24 90 13 00 	lea    0x1390(%rsp),%rsi
  4026ab:	00 
  4026ac:	48 89 56 08          	mov    %rdx,0x8(%rsi)
  4026b0:	c6 04 10 00          	movb   $0x0,(%rax,%rdx,1)
  4026b4:	e8 87 fb ff ff       	callq  402240 <_ZNSt13random_device7_M_initERKNSt7__cxx1112basic_stringIcSt11char_traitsIcESaIcEEE@plt>
  4026b9:	48 8b bc 24 90 13 00 	mov    0x1390(%rsp),%rdi
  4026c0:	00 
  4026c1:	48 3b fb             	cmp    %rbx,%rdi
  4026c4:	74 05                	je     4026cb <_Z10prepareSmpPf+0x7b>
  4026c6:	e8 85 fa ff ff       	callq  402150 <_ZdlPv@plt>
  4026cb:	48 8d 7c 24 08       	lea    0x8(%rsp),%rdi
  4026d0:	e8 1b fb ff ff       	callq  4021f0 <_ZNSt13random_device9_M_getvalEv@plt>
  4026d5:	db 2d 35 49 00 00    	fldt   0x4935(%rip)        # 407010 <_IO_stdin_used+0x10>
  4026db:	49 be 05 00 00 00 02 	movabs $0x200000005,%r14
  4026e2:	00 00 00 
  4026e5:	41 89 c4             	mov    %eax,%r12d
  4026e8:	48 83 c4 f0          	add    $0xfffffffffffffff0,%rsp
  4026ec:	4c 89 e2             	mov    %r12,%rdx
  4026ef:	4c 89 e1             	mov    %r12,%rcx
  4026f2:	c4 c2 93 f6 f6       	mulx   %r14,%r13,%rsi
  4026f7:	bf 01 00 00 00       	mov    $0x1,%edi
  4026fc:	48 2b ce             	sub    %rsi,%rcx
  4026ff:	45 33 ed             	xor    %r13d,%r13d
  402702:	48 d1 e9             	shr    %rcx
  402705:	48 03 f1             	add    %rcx,%rsi
  402708:	48 c1 ee 1e          	shr    $0x1e,%rsi
  40270c:	48 89 f3             	mov    %rsi,%rbx
  40270f:	48 c1 e3 1f          	shl    $0x1f,%rbx
  402713:	48 2b f3             	sub    %rbx,%rsi
  402716:	33 db                	xor    %ebx,%ebx
  402718:	4c 03 e6             	add    %rsi,%r12
  40271b:	db 3c 24             	fstpt  (%rsp)
  40271e:	4c 0f 44 e7          	cmove  %rdi,%r12
  402722:	e8 b9 0a 00 00       	callq  4031e0 <logl>
  402727:	db bc 24 c0 13 00 00 	fstpt  0x13c0(%rsp)
  40272e:	db 2d ec 48 00 00    	fldt   0x48ec(%rip)        # 407020 <_IO_stdin_used+0x20>
  402734:	db 3c 24             	fstpt  (%rsp)
  402737:	e8 a4 0a 00 00       	callq  4031e0 <logl>
  40273c:	d9 05 06 49 00 00    	flds   0x4906(%rip)        # 407048 <_IO_stdin_used+0x48>
  402742:	48 83 c4 10          	add    $0x10,%rsp
  402746:	db ac 24 b0 13 00 00 	fldt   0x13b0(%rsp)
  40274d:	48 be 00 00 00 00 00 	movabs $0x8000000000000000,%rsi
  402754:	00 00 80 
  402757:	de f2                	fdivp  %st,%st(2)
  402759:	33 d2                	xor    %edx,%edx
  40275b:	d9 c9                	fxch   %st(1)
  40275d:	db f1                	fcomi  %st(1),%st
  40275f:	c5 fa 10 05 dd 48 00 	vmovss 0x48dd(%rip),%xmm0        # 407044 <_IO_stdin_used+0x44>
  402766:	00 
  402767:	dc e1                	fsub   %st,%st(1)
  402769:	db c1                	fcmovnb %st(1),%st
  40276b:	dd d9                	fstp   %st(1)
  40276d:	49 0f 42 f5          	cmovb  %r13,%rsi
  402771:	dd 0c 24             	fisttpll (%rsp)
  402774:	db 2d 96 48 00 00    	fldt   0x4896(%rip)        # 407010 <_IO_stdin_used+0x10>
  40277a:	48 8b 0c 24          	mov    (%rsp),%rcx
  40277e:	48 8d 3c 31          	lea    (%rcx,%rsi,1),%rdi
  402782:	48 8d 44 31 17       	lea    0x17(%rcx,%rsi,1),%rax
  402787:	48 f7 f7             	div    %rdi
  40278a:	49 89 c0             	mov    %rax,%r8
  40278d:	b8 01 00 00 00       	mov    $0x1,%eax
  402792:	49 83 f8 01          	cmp    $0x1,%r8
  402796:	49 0f 47 c0          	cmova  %r8,%rax
  40279a:	c5 fa 10 0d a2 48 00 	vmovss 0x48a2(%rip),%xmm1        # 407044 <_IO_stdin_used+0x44>
  4027a1:	00 
  4027a2:	4c 89 e9             	mov    %r13,%rcx
  4027a5:	c5 e8 57 d2          	vxorps %xmm2,%xmm2,%xmm2
  4027a9:	48 85 c0             	test   %rax,%rax
  4027ac:	74 5e                	je     40280c <_Z10prepareSmpPf+0x1bc>
  4027ae:	66 90                	xchg   %ax,%ax
  4027b0:	49 69 d4 a7 41 00 00 	imul   $0x41a7,%r12,%rdx
  4027b7:	c4 42 9b f6 c6       	mulx   %r14,%r12,%r8
  4027bc:	48 89 d6             	mov    %rdx,%rsi
  4027bf:	49 2b f0             	sub    %r8,%rsi
  4027c2:	48 ff c1             	inc    %rcx
  4027c5:	48 d1 ee             	shr    %rsi
  4027c8:	4c 03 c6             	add    %rsi,%r8
  4027cb:	49 c1 e8 1e          	shr    $0x1e,%r8
  4027cf:	4c 89 c7             	mov    %r8,%rdi
  4027d2:	48 c1 e7 1f          	shl    $0x1f,%rdi
  4027d6:	4c 2b c7             	sub    %rdi,%r8
  4027d9:	c5 fa 11 0c 24       	vmovss %xmm1,(%rsp)
  4027de:	d9 04 24             	flds   (%rsp)
  4027e1:	d8 c9                	fmul   %st(1),%st
  4027e3:	d9 9c 24 b0 13 00 00 	fstps  0x13b0(%rsp)
  4027ea:	4e 8d 4c 02 ff       	lea    -0x1(%rdx,%r8,1),%r9
  4027ef:	62 d1 e6 08 7b d9    	vcvtusi2ss %r9,%xmm3,%xmm3
  4027f5:	4d 8d 24 10          	lea    (%r8,%rdx,1),%r12
  4027f9:	c4 e2 71 b9 d3       	vfmadd231ss %xmm3,%xmm1,%xmm2
  4027fe:	c5 fa 10 8c 24 b0 13 	vmovss 0x13b0(%rsp),%xmm1
  402805:	00 00 
  402807:	48 3b c8             	cmp    %rax,%rcx
  40280a:	72 a4                	jb     4027b0 <_Z10prepareSmpPf+0x160>
  40280c:	c5 ea 5e c9          	vdivss %xmm1,%xmm2,%xmm1
  402810:	c5 f8 2f c8          	vcomiss %xmm0,%xmm1
  402814:	73 4b                	jae    402861 <_Z10prepareSmpPf+0x211>
  402816:	c4 c1 7a 11 0c 9f    	vmovss %xmm1,(%r15,%rbx,4)
  40281c:	48 ff c3             	inc    %rbx
  40281f:	48 81 fb 00 04 00 00 	cmp    $0x400,%rbx
  402826:	0f 82 6e ff ff ff    	jb     40279a <_Z10prepareSmpPf+0x14a>
  40282c:	dd d8                	fstp   %st(0)
  40282e:	48 8d 7c 24 08       	lea    0x8(%rsp),%rdi
  402833:	e8 08 f9 ff ff       	callq  402140 <_ZNSt13random_device7_M_finiEv@plt>
  402838:	48 81 c4 c0 13 00 00 	add    $0x13c0,%rsp
  40283f:	5b                   	pop    %rbx
  402840:	41 5f                	pop    %r15
  402842:	41 5e                	pop    %r14
  402844:	41 5d                	pop    %r13
  402846:	41 5c                	pop    %r12
  402848:	c3                   	retq   
  402849:	48 89 04 24          	mov    %rax,(%rsp)
  40284d:	33 c0                	xor    %eax,%eax
  40284f:	48 8b 3c 24          	mov    (%rsp),%rdi
  402853:	e8 88 f9 ff ff       	callq  4021e0 <__cxa_call_unexpected@plt>
  402858:	48 8b 3c 24          	mov    (%rsp),%rdi
  40285c:	e8 ef f9 ff ff       	callq  402250 <_Unwind_Resume@plt>
  402861:	c5 fa 10 0d e3 47 00 	vmovss 0x47e3(%rip),%xmm1        # 40704c <_IO_stdin_used+0x4c>
  402868:	00 
  402869:	eb ab                	jmp    402816 <_Z10prepareSmpPf+0x1c6>
  40286b:	48 89 04 24          	mov    %rax,(%rsp)
  40286f:	48 8d 7c 24 08       	lea    0x8(%rsp),%rdi
  402874:	e8 97 06 00 00       	callq  402f10 <_ZNSt13random_deviceD1Ev>
  402879:	eb dd                	jmp    402858 <_Z10prepareSmpPf+0x208>
  40287b:	48 89 04 24          	mov    %rax,(%rsp)
  40287f:	48 8d bc 24 a0 13 00 	lea    0x13a0(%rsp),%rdi
  402886:	00 
  402887:	e8 64 06 00 00       	callq  402ef0 <_ZNSt14pointer_traitsIPKcE10pointer_toERS0_>
  40288c:	48 8b bc 24 90 13 00 	mov    0x1390(%rsp),%rdi
  402893:	00 
  402894:	48 3b f8             	cmp    %rax,%rdi
  402897:	74 05                	je     40289e <_Z10prepareSmpPf+0x24e>
  402899:	e8 b2 f8 ff ff       	callq  402150 <_ZdlPv@plt>
  40289e:	48 8d bc 24 90 13 00 	lea    0x1390(%rsp),%rdi
  4028a5:	00 
  4028a6:	e8 55 06 00 00       	callq  402f00 <_ZNSt7__cxx1112basic_stringIcSt11char_traitsIcESaIcEE12_Alloc_hiderD1Ev>
  4028ab:	eb ab                	jmp    402858 <_Z10prepareSmpPf+0x208>
  4028ad:	0f 1f 00             	nopl   (%rax)

00000000004028b0 <_Z11prepare_idxPj>:
  4028b0:	41 54                	push   %r12
  4028b2:	41 55                	push   %r13
  4028b4:	41 56                	push   %r14
  4028b6:	41 57                	push   %r15
  4028b8:	53                   	push   %rbx
  4028b9:	48 81 ec d0 13 00 00 	sub    $0x13d0,%rsp
  4028c0:	49 89 fc             	mov    %rdi,%r12
  4028c3:	8b 05 67 47 00 00    	mov    0x4767(%rip),%eax        # 407030 <_IO_stdin_used+0x30>
  4028c9:	48 8d b4 24 a0 13 00 	lea    0x13a0(%rsp),%rsi
  4028d0:	00 
  4028d1:	48 89 76 f0          	mov    %rsi,-0x10(%rsi)
  4028d5:	48 c7 04 24 07 00 00 	movq   $0x7,(%rsp)
  4028dc:	00 
  4028dd:	89 06                	mov    %eax,(%rsi)
  4028df:	0f b7 15 4e 47 00 00 	movzwl 0x474e(%rip),%edx        # 407034 <_IO_stdin_used+0x34>
  4028e6:	66 89 56 04          	mov    %dx,0x4(%rsi)
  4028ea:	8a 0d 46 47 00 00    	mov    0x4746(%rip),%cl        # 407036 <_IO_stdin_used+0x36>
  4028f0:	88 4e 06             	mov    %cl,0x6(%rsi)
  4028f3:	48 8b 84 24 90 13 00 	mov    0x1390(%rsp),%rax
  4028fa:	00 
  4028fb:	48 8d 7c 24 08       	lea    0x8(%rsp),%rdi
  402900:	48 8b 14 24          	mov    (%rsp),%rdx
  402904:	48 8d b4 24 90 13 00 	lea    0x1390(%rsp),%rsi
  40290b:	00 
  40290c:	48 89 56 08          	mov    %rdx,0x8(%rsi)
  402910:	c6 04 10 00          	movb   $0x0,(%rax,%rdx,1)
  402914:	e8 27 f9 ff ff       	callq  402240 <_ZNSt13random_device7_M_initERKNSt7__cxx1112basic_stringIcSt11char_traitsIcESaIcEEE@plt>
  402919:	48 8b bc 24 90 13 00 	mov    0x1390(%rsp),%rdi
  402920:	00 
  402921:	48 8d 84 24 a0 13 00 	lea    0x13a0(%rsp),%rax
  402928:	00 
  402929:	48 3b f8             	cmp    %rax,%rdi
  40292c:	74 05                	je     402933 <_Z11prepare_idxPj+0x83>
  40292e:	e8 1d f8 ff ff       	callq  402150 <_ZdlPv@plt>
  402933:	48 8d 7c 24 08       	lea    0x8(%rsp),%rdi
  402938:	e8 b3 f8 ff ff       	callq  4021f0 <_ZNSt13random_device9_M_getvalEv@plt>
  40293d:	89 c6                	mov    %eax,%esi
  40293f:	48 b8 05 00 00 00 02 	movabs $0x200000005,%rax
  402946:	00 00 00 
  402949:	48 89 f2             	mov    %rsi,%rdx
  40294c:	48 89 f7             	mov    %rsi,%rdi
  40294f:	c4 62 f3 f6 c8       	mulx   %rax,%rcx,%r9
  402954:	41 ba 01 00 00 00    	mov    $0x1,%r10d
  40295a:	49 2b f9             	sub    %r9,%rdi
  40295d:	33 c9                	xor    %ecx,%ecx
  40295f:	48 d1 ef             	shr    %rdi
  402962:	4c 03 cf             	add    %rdi,%r9
  402965:	49 89 c7             	mov    %rax,%r15
  402968:	49 c1 e9 1e          	shr    $0x1e,%r9
  40296c:	4d 89 e6             	mov    %r12,%r14
  40296f:	4d 89 c8             	mov    %r9,%r8
  402972:	49 89 cc             	mov    %rcx,%r12
  402975:	49 c1 e0 1f          	shl    $0x1f,%r8
  402979:	4d 2b c8             	sub    %r8,%r9
  40297c:	49 03 f1             	add    %r9,%rsi
  40297f:	c7 84 24 b0 13 00 00 	movl   $0x0,0x13b0(%rsp)
  402986:	00 00 00 00 
  40298a:	c7 84 24 b4 13 00 00 	movl   $0x3ff,0x13b4(%rsp)
  402991:	ff 03 00 00 
  402995:	49 0f 44 f2          	cmove  %r10,%rsi
  402999:	44 8b ac 24 b4 13 00 	mov    0x13b4(%rsp),%r13d
  4029a0:	00 
  4029a1:	4c 2b e9             	sub    %rcx,%r13
  4029a4:	49 81 fd fd ff ff 7f 	cmp    $0x7ffffffd,%r13
  4029ab:	0f 83 9b 00 00 00    	jae    402a4c <_Z11prepare_idxPj+0x19c>
  4029b1:	49 ff c5             	inc    %r13
  4029b4:	33 d2                	xor    %edx,%edx
  4029b6:	b8 fd ff ff 7f       	mov    $0x7ffffffd,%eax
  4029bb:	49 f7 f5             	div    %r13
  4029be:	48 89 c3             	mov    %rax,%rbx
  4029c1:	4c 0f af eb          	imul   %rbx,%r13
  4029c5:	48 69 d6 a7 41 00 00 	imul   $0x41a7,%rsi,%rdx
  4029cc:	c4 42 cb f6 cf       	mulx   %r15,%rsi,%r9
  4029d1:	48 89 d7             	mov    %rdx,%rdi
  4029d4:	49 2b f9             	sub    %r9,%rdi
  4029d7:	48 d1 ef             	shr    %rdi
  4029da:	4c 03 cf             	add    %rdi,%r9
  4029dd:	49 c1 e9 1e          	shr    $0x1e,%r9
  4029e1:	4d 89 c8             	mov    %r9,%r8
  4029e4:	49 c1 e0 1f          	shl    $0x1f,%r8
  4029e8:	4d 2b c8             	sub    %r8,%r9
  4029eb:	4a 8d 44 0a ff       	lea    -0x1(%rdx,%r9,1),%rax
  4029f0:	49 8d 34 11          	lea    (%r9,%rdx,1),%rsi
  4029f4:	49 3b c5             	cmp    %r13,%rax
  4029f7:	73 cc                	jae    4029c5 <_Z11prepare_idxPj+0x115>
  4029f9:	33 d2                	xor    %edx,%edx
  4029fb:	48 f7 f3             	div    %rbx
  4029fe:	48 03 c1             	add    %rcx,%rax
  402a01:	43 89 04 a6          	mov    %eax,(%r14,%r12,4)
  402a05:	49 ff c4             	inc    %r12
  402a08:	49 81 fc 00 04 00 00 	cmp    $0x400,%r12
  402a0f:	7c 88                	jl     402999 <_Z11prepare_idxPj+0xe9>
  402a11:	48 89 b4 24 c0 13 00 	mov    %rsi,0x13c0(%rsp)
  402a18:	00 
  402a19:	48 8d 7c 24 08       	lea    0x8(%rsp),%rdi
  402a1e:	e8 1d f7 ff ff       	callq  402140 <_ZNSt13random_device7_M_finiEv@plt>
  402a23:	48 81 c4 d0 13 00 00 	add    $0x13d0,%rsp
  402a2a:	5b                   	pop    %rbx
  402a2b:	41 5f                	pop    %r15
  402a2d:	41 5e                	pop    %r14
  402a2f:	41 5d                	pop    %r13
  402a31:	41 5c                	pop    %r12
  402a33:	c3                   	retq   
  402a34:	48 89 04 24          	mov    %rax,(%rsp)
  402a38:	33 c0                	xor    %eax,%eax
  402a3a:	48 8b 3c 24          	mov    (%rsp),%rdi
  402a3e:	e8 9d f7 ff ff       	callq  4021e0 <__cxa_call_unexpected@plt>
  402a43:	48 8b 3c 24          	mov    (%rsp),%rdi
  402a47:	e8 04 f8 ff ff       	callq  402250 <_Unwind_Resume@plt>
  402a4c:	0f 86 ba 00 00 00    	jbe    402b0c <_Z11prepare_idxPj+0x25c>
  402a52:	48 bb 11 00 00 00 04 	movabs $0x400000011,%rbx
  402a59:	00 00 00 
  402a5c:	4c 89 ea             	mov    %r13,%rdx
  402a5f:	48 89 b4 24 c0 13 00 	mov    %rsi,0x13c0(%rsp)
  402a66:	00 
  402a67:	4c 89 ee             	mov    %r13,%rsi
  402a6a:	c4 e2 f3 f6 db       	mulx   %rbx,%rcx,%rbx
  402a6f:	48 2b f3             	sub    %rbx,%rsi
  402a72:	48 d1 ee             	shr    %rsi
  402a75:	48 03 de             	add    %rsi,%rbx
  402a78:	48 c1 eb 1e          	shr    $0x1e,%rbx
  402a7c:	c7 84 24 b8 13 00 00 	movl   $0x0,0x13b8(%rsp)
  402a83:	00 00 00 00 
  402a87:	48 8d bc 24 b0 13 00 	lea    0x13b0(%rsp),%rdi
  402a8e:	00 
  402a8f:	89 5f 0c             	mov    %ebx,0xc(%rdi)
  402a92:	48 8d b4 24 c0 13 00 	lea    0x13c0(%rsp),%rsi
  402a99:	00 
  402a9a:	48 8d 94 24 b8 13 00 	lea    0x13b8(%rsp),%rdx
  402aa1:	00 
  402aa2:	e8 89 04 00 00       	callq  402f30 <_ZNSt24uniform_int_distributionIjEclISt26linear_congruential_engineImLm16807ELm0ELm2147483647EEEEjRT_RKNS0_10param_typeE>
  402aa7:	48 69 b4 24 c0 13 00 	imul   $0x41a7,0x13c0(%rsp),%rsi
  402aae:	00 a7 41 00 00 
  402ab3:	48 89 f2             	mov    %rsi,%rdx
  402ab6:	48 89 f7             	mov    %rsi,%rdi
  402ab9:	c4 42 f3 f6 cf       	mulx   %r15,%rcx,%r9
  402abe:	49 2b f9             	sub    %r9,%rdi
  402ac1:	48 d1 ef             	shr    %rdi
  402ac4:	4c 03 cf             	add    %rdi,%r9
  402ac7:	89 c0                	mov    %eax,%eax
  402ac9:	49 c1 e9 1e          	shr    $0x1e,%r9
  402acd:	49 89 c2             	mov    %rax,%r10
  402ad0:	4d 89 c8             	mov    %r9,%r8
  402ad3:	49 c1 e2 1f          	shl    $0x1f,%r10
  402ad7:	49 c1 e0 1f          	shl    $0x1f,%r8
  402adb:	4c 2b d0             	sub    %rax,%r10
  402ade:	4d 2b c8             	sub    %r8,%r9
  402ae1:	4c 2b d0             	sub    %rax,%r10
  402ae4:	49 03 f1             	add    %r9,%rsi
  402ae7:	4a 8d 44 16 ff       	lea    -0x1(%rsi,%r10,1),%rax
  402aec:	49 3b c5             	cmp    %r13,%rax
  402aef:	76 0a                	jbe    402afb <_Z11prepare_idxPj+0x24b>
  402af1:	48 89 b4 24 c0 13 00 	mov    %rsi,0x13c0(%rsp)
  402af8:	00 
  402af9:	eb 81                	jmp    402a7c <_Z11prepare_idxPj+0x1cc>
  402afb:	49 3b c2             	cmp    %r10,%rax
  402afe:	72 f1                	jb     402af1 <_Z11prepare_idxPj+0x241>
  402b00:	8b 8c 24 b0 13 00 00 	mov    0x13b0(%rsp),%ecx
  402b07:	e9 f2 fe ff ff       	jmpq   4029fe <_Z11prepare_idxPj+0x14e>
  402b0c:	48 69 d6 a7 41 00 00 	imul   $0x41a7,%rsi,%rdx
  402b13:	c4 42 cb f6 c7       	mulx   %r15,%rsi,%r8
  402b18:	48 89 d3             	mov    %rdx,%rbx
  402b1b:	49 2b d8             	sub    %r8,%rbx
  402b1e:	48 d1 eb             	shr    %rbx
  402b21:	4c 03 c3             	add    %rbx,%r8
  402b24:	49 c1 e8 1e          	shr    $0x1e,%r8
  402b28:	4c 89 c7             	mov    %r8,%rdi
  402b2b:	48 c1 e7 1f          	shl    $0x1f,%rdi
  402b2f:	4c 2b c7             	sub    %rdi,%r8
  402b32:	49 8d 34 10          	lea    (%r8,%rdx,1),%rsi
  402b36:	4a 8d 44 02 ff       	lea    -0x1(%rdx,%r8,1),%rax
  402b3b:	e9 be fe ff ff       	jmpq   4029fe <_Z11prepare_idxPj+0x14e>
  402b40:	48 89 04 24          	mov    %rax,(%rsp)
  402b44:	48 8d 7c 24 08       	lea    0x8(%rsp),%rdi
  402b49:	e8 c2 03 00 00       	callq  402f10 <_ZNSt13random_deviceD1Ev>
  402b4e:	e9 f0 fe ff ff       	jmpq   402a43 <_Z11prepare_idxPj+0x193>
  402b53:	48 89 04 24          	mov    %rax,(%rsp)
  402b57:	48 8d bc 24 a0 13 00 	lea    0x13a0(%rsp),%rdi
  402b5e:	00 
  402b5f:	e8 8c 03 00 00       	callq  402ef0 <_ZNSt14pointer_traitsIPKcE10pointer_toERS0_>
  402b64:	48 8b bc 24 90 13 00 	mov    0x1390(%rsp),%rdi
  402b6b:	00 
  402b6c:	48 3b f8             	cmp    %rax,%rdi
  402b6f:	74 05                	je     402b76 <_Z11prepare_idxPj+0x2c6>
  402b71:	e8 da f5 ff ff       	callq  402150 <_ZdlPv@plt>
  402b76:	48 8d bc 24 90 13 00 	lea    0x1390(%rsp),%rdi
  402b7d:	00 
  402b7e:	e8 7d 03 00 00       	callq  402f00 <_ZNSt7__cxx1112basic_stringIcSt11char_traitsIcESaIcEE12_Alloc_hiderD1Ev>
  402b83:	e9 bb fe ff ff       	jmpq   402a43 <_Z11prepare_idxPj+0x193>
  402b88:	0f 1f 84 00 00 00 00 	nopl   0x0(%rax,%rax,1)
  402b8f:	00 

0000000000402b90 <_Z4coreRSt6vectorIfSaIfEES2_Pj>:
  402b90:	49 89 d0             	mov    %rdx,%r8
  402b93:	4c 89 c1             	mov    %r8,%rcx
  402b96:	48 83 e1 1f          	and    $0x1f,%rcx
  402b9a:	48 8b 3f             	mov    (%rdi),%rdi
  402b9d:	48 8b 36             	mov    (%rsi),%rsi
  402ba0:	f6 c1 03             	test   $0x3,%cl
  402ba3:	74 06                	je     402bab <_Z4coreRSt6vectorIfSaIfEES2_Pj+0x1b>
  402ba5:	33 c9                	xor    %ecx,%ecx
  402ba7:	33 c0                	xor    %eax,%eax
  402ba9:	eb 31                	jmp    402bdc <_Z4coreRSt6vectorIfSaIfEES2_Pj+0x4c>
  402bab:	85 c9                	test   %ecx,%ecx
  402bad:	75 04                	jne    402bb3 <_Z4coreRSt6vectorIfSaIfEES2_Pj+0x23>
  402baf:	33 c0                	xor    %eax,%eax
  402bb1:	eb 29                	jmp    402bdc <_Z4coreRSt6vectorIfSaIfEES2_Pj+0x4c>
  402bb3:	f7 d9                	neg    %ecx
  402bb5:	33 d2                	xor    %edx,%edx
  402bb7:	83 c1 20             	add    $0x20,%ecx
  402bba:	c1 e9 02             	shr    $0x2,%ecx
  402bbd:	89 c8                	mov    %ecx,%eax
  402bbf:	45 8b 0c 90          	mov    (%r8,%rdx,4),%r9d
  402bc3:	c4 a1 7a 10 04 8f    	vmovss (%rdi,%r9,4),%xmm0
  402bc9:	c5 fa 58 0c 96       	vaddss (%rsi,%rdx,4),%xmm0,%xmm1
  402bce:	48 ff c2             	inc    %rdx
  402bd1:	c4 a1 7a 11 0c 8f    	vmovss %xmm1,(%rdi,%r9,4)
  402bd7:	48 3b d0             	cmp    %rax,%rdx
  402bda:	72 e3                	jb     402bbf <_Z4coreRSt6vectorIfSaIfEES2_Pj+0x2f>
  402bdc:	f7 d9                	neg    %ecx
  402bde:	49 b9 00 00 00 00 02 	movabs $0x200000000,%r9
  402be5:	00 00 00 
  402be8:	83 e1 0f             	and    $0xf,%ecx
  402beb:	f7 d9                	neg    %ecx
  402bed:	4c 03 cf             	add    %rdi,%r9
  402bf0:	8d 91 00 04 00 00    	lea    0x400(%rcx),%edx
  402bf6:	41 89 d2             	mov    %edx,%r10d
  402bf9:	0f 1f 80 00 00 00 00 	nopl   0x0(%rax)
  402c00:	c4 c1 7e 6f 04 80    	vmovdqu (%r8,%rax,4),%ymm0
  402c06:	c4 c1 7e 6f 4c 80 20 	vmovdqu 0x20(%r8,%rax,4),%ymm1
  402c0d:	62 f1 7d 08 74 c8    	vpcmpeqb %xmm0,%xmm0,%k1
  402c13:	62 f1 7d 08 74 d0    	vpcmpeqb %xmm0,%xmm0,%k2
  402c19:	62 f1 7d 08 74 d8    	vpcmpeqb %xmm0,%xmm0,%k3
  402c1f:	62 f1 7d 08 74 e0    	vpcmpeqb %xmm0,%xmm0,%k4
  402c25:	62 f1 7d 38 fe 25 11 	vpaddd 0x4411(%rip){1to8},%ymm0,%ymm4        # 407040 <_IO_stdin_used+0x40>
  402c2c:	44 00 00 
  402c2f:	62 f1 75 38 fe 35 07 	vpaddd 0x4407(%rip){1to8},%ymm1,%ymm6        # 407040 <_IO_stdin_used+0x40>
  402c36:	44 00 00 
  402c39:	c5 ec 57 d2          	vxorps %ymm2,%ymm2,%ymm2
  402c3d:	62 d2 7d 29 92 14 a1 	vgatherdps (%r9,%ymm4,4),%ymm2{%k1}
  402c44:	c5 e4 57 db          	vxorps %ymm3,%ymm3,%ymm3
  402c48:	c5 ec 58 2c 86       	vaddps (%rsi,%rax,4),%ymm2,%ymm5
  402c4d:	62 d2 7d 2a 92 1c b1 	vgatherdps (%r9,%ymm6,4),%ymm3{%k2}
  402c54:	c5 e4 58 7c 86 20    	vaddps 0x20(%rsi,%rax,4),%ymm3,%ymm7
  402c5a:	48 83 c0 10          	add    $0x10,%rax
  402c5e:	62 d2 7d 2b a2 2c a1 	vscatterdps %ymm5,(%r9,%ymm4,4){%k3}
  402c65:	62 d2 7d 2c a2 3c b1 	vscatterdps %ymm7,(%r9,%ymm6,4){%k4}
  402c6c:	49 3b c2             	cmp    %r10,%rax
  402c6f:	72 8f                	jb     402c00 <_Z4coreRSt6vectorIfSaIfEES2_Pj+0x70>
  402c71:	33 c0                	xor    %eax,%eax
  402c73:	44 8d 89 01 04 00 00 	lea    0x401(%rcx),%r9d
  402c7a:	41 81 f9 00 04 00 00 	cmp    $0x400,%r9d
  402c81:	77 2f                	ja     402cb2 <_Z4coreRSt6vectorIfSaIfEES2_Pj+0x122>
  402c83:	f7 da                	neg    %edx
  402c85:	81 c2 00 04 00 00    	add    $0x400,%edx
  402c8b:	44 8d 8c 08 00 04 00 	lea    0x400(%rax,%rcx,1),%r9d
  402c92:	00 
  402c93:	ff c0                	inc    %eax
  402c95:	4d 63 c9             	movslq %r9d,%r9
  402c98:	47 8b 14 88          	mov    (%r8,%r9,4),%r10d
  402c9c:	c4 a1 7a 10 04 97    	vmovss (%rdi,%r10,4),%xmm0
  402ca2:	c4 a1 7a 58 0c 8e    	vaddss (%rsi,%r9,4),%xmm0,%xmm1
  402ca8:	c4 a1 7a 11 0c 97    	vmovss %xmm1,(%rdi,%r10,4)
  402cae:	3b c2                	cmp    %edx,%eax
  402cb0:	72 d9                	jb     402c8b <_Z4coreRSt6vectorIfSaIfEES2_Pj+0xfb>
  402cb2:	c5 f8 77             	vzeroupper 
  402cb5:	c3                   	retq   
  402cb6:	0f 1f 00             	nopl   (%rax)
  402cb9:	0f 1f 80 00 00 00 00 	nopl   0x0(%rax)

0000000000402cc0 <__sti__$E>:
  402cc0:	56                   	push   %rsi
  402cc1:	bf e0 e3 40 00       	mov    $0x40e3e0,%edi
  402cc6:	e8 45 f5 ff ff       	callq  402210 <_ZNSt8ios_base4InitC1Ev@plt>
  402ccb:	bf 70 22 40 00       	mov    $0x402270,%edi
  402cd0:	be e0 e3 40 00       	mov    $0x40e3e0,%esi
  402cd5:	ba 48 e1 40 00       	mov    $0x40e148,%edx
  402cda:	48 83 c4 08          	add    $0x8,%rsp
  402cde:	e9 4d f4 ff ff       	jmpq   402130 <__cxa_atexit@plt>
  402ce3:	0f 1f 44 00 00       	nopl   0x0(%rax,%rax,1)
  402ce8:	0f 1f 84 00 00 00 00 	nopl   0x0(%rax,%rax,1)
  402cef:	00 

0000000000402cf0 <_ZNSt12_Vector_baseIfSaIfEED1Ev>:
  402cf0:	48 8b 3f             	mov    (%rdi),%rdi
  402cf3:	48 85 ff             	test   %rdi,%rdi
  402cf6:	74 05                	je     402cfd <_ZNSt12_Vector_baseIfSaIfEED1Ev+0xd>
  402cf8:	e9 53 f4 ff ff       	jmpq   402150 <_ZdlPv@plt>
  402cfd:	c3                   	retq   
  402cfe:	66 90                	xchg   %ax,%ax

0000000000402d00 <_ZNSt12_Vector_baseIfSaIfEE12_Vector_implD1Ev>:
  402d00:	c3                   	retq   
  402d01:	0f 1f 84 00 00 00 00 	nopl   0x0(%rax,%rax,1)
  402d08:	00 
  402d09:	0f 1f 80 00 00 00 00 	nopl   0x0(%rax)

0000000000402d10 <_ZNSt6vectorIfSaIfEED1Ev>:
  402d10:	48 8b 3f             	mov    (%rdi),%rdi
  402d13:	48 85 ff             	test   %rdi,%rdi
  402d16:	74 05                	je     402d1d <_ZNSt6vectorIfSaIfEED1Ev+0xd>
  402d18:	e9 33 f4 ff ff       	jmpq   402150 <_ZdlPv@plt>
  402d1d:	c3                   	retq   
  402d1e:	66 90                	xchg   %ax,%ax

0000000000402d20 <_ZNSt6vectorIfSaIfEEC1EmRKfRKS0_>:
  402d20:	55                   	push   %rbp
  402d21:	48 89 e5             	mov    %rsp,%rbp
  402d24:	48 83 e4 c0          	and    $0xffffffffffffffc0,%rsp
  402d28:	41 54                	push   %r12
  402d2a:	41 55                	push   %r13
  402d2c:	41 56                	push   %r14
  402d2e:	53                   	push   %rbx
  402d2f:	48 83 ec 20          	sub    $0x20,%rsp
  402d33:	49 89 d6             	mov    %rdx,%r14
  402d36:	48 89 f3             	mov    %rsi,%rbx
  402d39:	48 ba ff ff ff ff ff 	movabs $0x1fffffffffffffff,%rdx
  402d40:	ff ff 1f 
  402d43:	49 89 fc             	mov    %rdi,%r12
  402d46:	48 3b da             	cmp    %rdx,%rbx
  402d49:	0f 87 49 01 00 00    	ja     402e98 <_ZNSt6vectorIfSaIfEEC1EmRKfRKS0_+0x178>
  402d4f:	33 c0                	xor    %eax,%eax
  402d51:	49 89 44 24 08       	mov    %rax,0x8(%r12)
  402d56:	49 89 44 24 10       	mov    %rax,0x10(%r12)
  402d5b:	48 85 db             	test   %rbx,%rbx
  402d5e:	0f 85 f8 00 00 00    	jne    402e5c <_ZNSt6vectorIfSaIfEEC1EmRKfRKS0_+0x13c>
  402d64:	45 33 ed             	xor    %r13d,%r13d
  402d67:	4c 03 e8             	add    %rax,%r13
  402d6a:	49 89 c0             	mov    %rax,%r8
  402d6d:	49 89 04 24          	mov    %rax,(%r12)
  402d71:	4d 89 6c 24 10       	mov    %r13,0x10(%r12)
  402d76:	c4 c1 7a 10 06       	vmovss (%r14),%xmm0
  402d7b:	48 85 db             	test   %rbx,%rbx
  402d7e:	0f 86 bc 00 00 00    	jbe    402e40 <_ZNSt6vectorIfSaIfEEC1EmRKfRKS0_+0x120>
  402d84:	48 83 fb 10          	cmp    $0x10,%rbx
  402d88:	0f 82 ca 00 00 00    	jb     402e58 <_ZNSt6vectorIfSaIfEEC1EmRKfRKS0_+0x138>
  402d8e:	48 89 c6             	mov    %rax,%rsi
  402d91:	48 83 e6 1f          	and    $0x1f,%rsi
  402d95:	48 f7 c6 03 00 00 00 	test   $0x3,%rsi
  402d9c:	74 11                	je     402daf <_ZNSt6vectorIfSaIfEEC1EmRKfRKS0_+0x8f>
  402d9e:	48 89 da             	mov    %rbx,%rdx
  402da1:	33 f6                	xor    %esi,%esi
  402da3:	48 83 e2 0f          	and    $0xf,%rdx
  402da7:	48 f7 da             	neg    %rdx
  402daa:	48 03 d3             	add    %rbx,%rdx
  402dad:	eb 51                	jmp    402e00 <_ZNSt6vectorIfSaIfEEC1EmRKfRKS0_+0xe0>
  402daf:	48 85 f6             	test   %rsi,%rsi
  402db2:	74 3f                	je     402df3 <_ZNSt6vectorIfSaIfEEC1EmRKfRKS0_+0xd3>
  402db4:	48 f7 de             	neg    %rsi
  402db7:	48 83 c6 20          	add    $0x20,%rsi
  402dbb:	48 c1 ee 02          	shr    $0x2,%rsi
  402dbf:	48 8d 56 10          	lea    0x10(%rsi),%rdx
  402dc3:	48 3b da             	cmp    %rdx,%rbx
  402dc6:	0f 82 8c 00 00 00    	jb     402e58 <_ZNSt6vectorIfSaIfEEC1EmRKfRKS0_+0x138>
  402dcc:	48 89 da             	mov    %rbx,%rdx
  402dcf:	33 c9                	xor    %ecx,%ecx
  402dd1:	48 2b d6             	sub    %rsi,%rdx
  402dd4:	48 83 e2 0f          	and    $0xf,%rdx
  402dd8:	48 f7 da             	neg    %rdx
  402ddb:	48 03 d3             	add    %rbx,%rdx
  402dde:	48 83 fe 01          	cmp    $0x1,%rsi
  402de2:	72 1c                	jb     402e00 <_ZNSt6vectorIfSaIfEEC1EmRKfRKS0_+0xe0>
  402de4:	c5 fa 11 04 88       	vmovss %xmm0,(%rax,%rcx,4)
  402de9:	48 ff c1             	inc    %rcx
  402dec:	48 3b ce             	cmp    %rsi,%rcx
  402def:	72 f3                	jb     402de4 <_ZNSt6vectorIfSaIfEEC1EmRKfRKS0_+0xc4>
  402df1:	eb 0d                	jmp    402e00 <_ZNSt6vectorIfSaIfEEC1EmRKfRKS0_+0xe0>
  402df3:	48 89 da             	mov    %rbx,%rdx
  402df6:	48 83 e2 0f          	and    $0xf,%rdx
  402dfa:	48 f7 da             	neg    %rdx
  402dfd:	48 03 d3             	add    %rbx,%rdx
  402e00:	c4 e2 7d 18 c8       	vbroadcastss %xmm0,%ymm1
  402e05:	c5 fc 11 0c b0       	vmovups %ymm1,(%rax,%rsi,4)
  402e0a:	c5 fc 11 4c b0 20    	vmovups %ymm1,0x20(%rax,%rsi,4)
  402e10:	48 83 c6 10          	add    $0x10,%rsi
  402e14:	48 3b f2             	cmp    %rdx,%rsi
  402e17:	72 ec                	jb     402e05 <_ZNSt6vectorIfSaIfEEC1EmRKfRKS0_+0xe5>
  402e19:	4c 8d 04 90          	lea    (%rax,%rdx,4),%r8
  402e1d:	33 c9                	xor    %ecx,%ecx
  402e1f:	48 8d 72 01          	lea    0x1(%rdx),%rsi
  402e23:	48 3b f3             	cmp    %rbx,%rsi
  402e26:	77 18                	ja     402e40 <_ZNSt6vectorIfSaIfEEC1EmRKfRKS0_+0x120>
  402e28:	48 2b da             	sub    %rdx,%rbx
  402e2b:	48 8d 04 90          	lea    (%rax,%rdx,4),%rax
  402e2f:	c5 fa 11 04 88       	vmovss %xmm0,(%rax,%rcx,4)
  402e34:	48 ff c1             	inc    %rcx
  402e37:	48 3b cb             	cmp    %rbx,%rcx
  402e3a:	72 f3                	jb     402e2f <_ZNSt6vectorIfSaIfEEC1EmRKfRKS0_+0x10f>
  402e3c:	4c 8d 04 88          	lea    (%rax,%rcx,4),%r8
  402e40:	4d 89 44 24 08       	mov    %r8,0x8(%r12)
  402e45:	c5 f8 77             	vzeroupper 
  402e48:	48 83 c4 20          	add    $0x20,%rsp
  402e4c:	5b                   	pop    %rbx
  402e4d:	41 5e                	pop    %r14
  402e4f:	41 5d                	pop    %r13
  402e51:	41 5c                	pop    %r12
  402e53:	48 89 ec             	mov    %rbp,%rsp
  402e56:	5d                   	pop    %rbp
  402e57:	c3                   	retq   
  402e58:	33 d2                	xor    %edx,%edx
  402e5a:	eb c1                	jmp    402e1d <_ZNSt6vectorIfSaIfEEC1EmRKfRKS0_+0xfd>
  402e5c:	49 c7 04 24 00 00 00 	movq   $0x0,(%r12)
  402e63:	00 
  402e64:	48 3b da             	cmp    %rdx,%rbx
  402e67:	77 2a                	ja     402e93 <_ZNSt6vectorIfSaIfEEC1EmRKfRKS0_+0x173>
  402e69:	4c 8d 2c 9d 00 00 00 	lea    0x0(,%rbx,4),%r13
  402e70:	00 
  402e71:	4c 89 ef             	mov    %r13,%rdi
  402e74:	e8 f7 f2 ff ff       	callq  402170 <_Znwm@plt>
  402e79:	e9 e9 fe ff ff       	jmpq   402d67 <_ZNSt6vectorIfSaIfEEC1EmRKfRKS0_+0x47>
  402e7e:	48 89 04 24          	mov    %rax,(%rsp)
  402e82:	4c 89 e7             	mov    %r12,%rdi
  402e85:	e8 76 fe ff ff       	callq  402d00 <_ZNSt12_Vector_baseIfSaIfEE12_Vector_implD1Ev>
  402e8a:	48 8b 3c 24          	mov    (%rsp),%rdi
  402e8e:	e8 bd f3 ff ff       	callq  402250 <_Unwind_Resume@plt>
  402e93:	e8 d8 f1 ff ff       	callq  402070 <_ZSt17__throw_bad_allocv@plt>
  402e98:	bf 54 70 40 00       	mov    $0x407054,%edi
  402e9d:	e8 2e f2 ff ff       	callq  4020d0 <_ZSt20__throw_length_errorPKc@plt>
  402ea2:	0f 1f 80 00 00 00 00 	nopl   0x0(%rax)
  402ea9:	0f 1f 80 00 00 00 00 	nopl   0x0(%rax)

0000000000402eb0 <_ZNSaIfED1Ev>:
  402eb0:	c3                   	retq   
  402eb1:	0f 1f 84 00 00 00 00 	nopl   0x0(%rax,%rax,1)
  402eb8:	00 
  402eb9:	0f 1f 80 00 00 00 00 	nopl   0x0(%rax)

0000000000402ec0 <_ZNSt11char_traitsIcE6lengthEPKc>:
  402ec0:	56                   	push   %rsi
  402ec1:	48 89 fa             	mov    %rdi,%rdx
  402ec4:	48 89 d1             	mov    %rdx,%rcx
  402ec7:	48 83 e2 f0          	and    $0xfffffffffffffff0,%rdx
  402ecb:	c5 f9 ef c0          	vpxor  %xmm0,%xmm0,%xmm0
  402ecf:	c5 f9 74 02          	vpcmpeqb (%rdx),%xmm0,%xmm0
  402ed3:	c5 f9 d7 c0          	vpmovmskb %xmm0,%eax
  402ed7:	83 e1 0f             	and    $0xf,%ecx
  402eda:	d3 e8                	shr    %cl,%eax
  402edc:	0f bc c0             	bsf    %eax,%eax
  402edf:	75 0c                	jne    402eed <_ZNSt11char_traitsIcE6lengthEPKc+0x2d>
  402ee1:	48 89 d0             	mov    %rdx,%rax
  402ee4:	48 03 d1             	add    %rcx,%rdx
  402ee7:	ff 15 db b0 00 00    	callq  *0xb0db(%rip)        # 40dfc8 <.got+0x8>
  402eed:	59                   	pop    %rcx
  402eee:	c3                   	retq   
  402eef:	90                   	nop

0000000000402ef0 <_ZNSt14pointer_traitsIPKcE10pointer_toERS0_>:
  402ef0:	48 89 f8             	mov    %rdi,%rax
  402ef3:	c3                   	retq   
  402ef4:	0f 1f 44 00 00       	nopl   0x0(%rax,%rax,1)
  402ef9:	0f 1f 80 00 00 00 00 	nopl   0x0(%rax)

0000000000402f00 <_ZNSt7__cxx1112basic_stringIcSt11char_traitsIcESaIcEE12_Alloc_hiderD1Ev>:
  402f00:	c3                   	retq   
  402f01:	0f 1f 84 00 00 00 00 	nopl   0x0(%rax,%rax,1)
  402f08:	00 
  402f09:	0f 1f 80 00 00 00 00 	nopl   0x0(%rax)

0000000000402f10 <_ZNSt13random_deviceD1Ev>:
  402f10:	56                   	push   %rsi
  402f11:	e8 2a f2 ff ff       	callq  402140 <_ZNSt13random_device7_M_finiEv@plt>
  402f16:	59                   	pop    %rcx
  402f17:	c3                   	retq   
  402f18:	48 89 04 24          	mov    %rax,(%rsp)
  402f1c:	33 c0                	xor    %eax,%eax
  402f1e:	48 8b 3c 24          	mov    (%rsp),%rdi
  402f22:	e8 b9 f2 ff ff       	callq  4021e0 <__cxa_call_unexpected@plt>
  402f27:	48 8b 3c 24          	mov    (%rsp),%rdi
  402f2b:	e8 20 f3 ff ff       	callq  402250 <_Unwind_Resume@plt>

0000000000402f30 <_ZNSt24uniform_int_distributionIjEclISt26linear_congruential_engineImLm16807ELm0ELm2147483647EEEEjRT_RKNS0_10param_typeE>:
  402f30:	48 83 ec 38          	sub    $0x38,%rsp
  402f34:	49 89 d1             	mov    %rdx,%r9
  402f37:	49 89 f0             	mov    %rsi,%r8
  402f3a:	41 8b 31             	mov    (%r9),%esi
  402f3d:	41 8b 49 04          	mov    0x4(%r9),%ecx
  402f41:	48 2b ce             	sub    %rsi,%rcx
  402f44:	48 81 f9 fd ff ff 7f 	cmp    $0x7ffffffd,%rcx
  402f4b:	73 65                	jae    402fb2 <_ZNSt24uniform_int_distributionIjEclISt26linear_congruential_engineImLm16807ELm0ELm2147483647EEEEjRT_RKNS0_10param_typeE+0x82>
  402f4d:	48 ff c1             	inc    %rcx
  402f50:	33 d2                	xor    %edx,%edx
  402f52:	b8 fd ff ff 7f       	mov    $0x7ffffffd,%eax
  402f57:	48 bf 05 00 00 00 02 	movabs $0x200000005,%rdi
  402f5e:	00 00 00 
  402f61:	48 f7 f1             	div    %rcx
  402f64:	49 89 c1             	mov    %rax,%r9
  402f67:	49 0f af c9          	imul   %r9,%rcx
  402f6b:	4d 8b 10             	mov    (%r8),%r10
  402f6e:	49 69 d2 a7 41 00 00 	imul   $0x41a7,%r10,%rdx
  402f75:	c4 e2 ab f6 c7       	mulx   %rdi,%r10,%rax
  402f7a:	49 89 d3             	mov    %rdx,%r11
  402f7d:	4c 2b d8             	sub    %rax,%r11
  402f80:	49 d1 eb             	shr    %r11
  402f83:	49 03 c3             	add    %r11,%rax
  402f86:	48 c1 e8 1e          	shr    $0x1e,%rax
  402f8a:	49 89 c2             	mov    %rax,%r10
  402f8d:	49 c1 e2 1f          	shl    $0x1f,%r10
  402f91:	49 2b c2             	sub    %r10,%rax
  402f94:	4c 8d 14 10          	lea    (%rax,%rdx,1),%r10
  402f98:	48 8d 44 02 ff       	lea    -0x1(%rdx,%rax,1),%rax
  402f9d:	48 3b c1             	cmp    %rcx,%rax
  402fa0:	73 cc                	jae    402f6e <_ZNSt24uniform_int_distributionIjEclISt26linear_congruential_engineImLm16807ELm0ELm2147483647EEEEjRT_RKNS0_10param_typeE+0x3e>
  402fa2:	33 d2                	xor    %edx,%edx
  402fa4:	4d 89 10             	mov    %r10,(%r8)
  402fa7:	49 f7 f1             	div    %r9
  402faa:	48 03 c6             	add    %rsi,%rax
  402fad:	48 83 c4 38          	add    $0x38,%rsp
  402fb1:	c3                   	retq   
  402fb2:	0f 86 eb 00 00 00    	jbe    4030a3 <_ZNSt24uniform_int_distributionIjEclISt26linear_congruential_engineImLm16807ELm0ELm2147483647EEEEjRT_RKNS0_10param_typeE+0x173>
  402fb8:	48 b8 11 00 00 00 04 	movabs $0x400000011,%rax
  402fbf:	00 00 00 
  402fc2:	48 89 ca             	mov    %rcx,%rdx
  402fc5:	c4 e2 cb f6 d0       	mulx   %rax,%rsi,%rdx
  402fca:	49 89 ca             	mov    %rcx,%r10
  402fcd:	4c 2b d2             	sub    %rdx,%r10
  402fd0:	48 b8 05 00 00 00 02 	movabs $0x200000005,%rax
  402fd7:	00 00 00 
  402fda:	49 d1 ea             	shr    %r10
  402fdd:	49 03 d2             	add    %r10,%rdx
  402fe0:	48 c1 ea 1e          	shr    $0x1e,%rdx
  402fe4:	4c 89 64 24 20       	mov    %r12,0x20(%rsp)
  402fe9:	49 89 fc             	mov    %rdi,%r12
  402fec:	4c 89 6c 24 18       	mov    %r13,0x18(%rsp)
  402ff1:	4d 89 c5             	mov    %r8,%r13
  402ff4:	4c 89 74 24 10       	mov    %r14,0x10(%rsp)
  402ff9:	4d 89 ce             	mov    %r9,%r14
  402ffc:	4c 89 7c 24 08       	mov    %r15,0x8(%rsp)
  403001:	49 89 d7             	mov    %rdx,%r15
  403004:	48 89 1c 24          	mov    %rbx,(%rsp)
  403008:	48 89 c3             	mov    %rax,%rbx
  40300b:	48 89 6c 24 28       	mov    %rbp,0x28(%rsp)
  403010:	48 89 cd             	mov    %rcx,%rbp
  403013:	4c 89 e7             	mov    %r12,%rdi
  403016:	4c 89 ee             	mov    %r13,%rsi
  403019:	c7 44 24 30 00 00 00 	movl   $0x0,0x30(%rsp)
  403020:	00 
  403021:	48 8d 54 24 30       	lea    0x30(%rsp),%rdx
  403026:	44 89 7a 04          	mov    %r15d,0x4(%rdx)
  40302a:	e8 01 ff ff ff       	callq  402f30 <_ZNSt24uniform_int_distributionIjEclISt26linear_congruential_engineImLm16807ELm0ELm2147483647EEEEjRT_RKNS0_10param_typeE>
  40302f:	49 69 55 00 a7 41 00 	imul   $0x41a7,0x0(%r13),%rdx
  403036:	00 
  403037:	c4 e2 ab f6 cb       	mulx   %rbx,%r10,%rcx
  40303c:	49 89 d3             	mov    %rdx,%r11
  40303f:	4c 2b d9             	sub    %rcx,%r11
  403042:	49 d1 eb             	shr    %r11
  403045:	49 03 cb             	add    %r11,%rcx
  403048:	89 c0                	mov    %eax,%eax
  40304a:	48 c1 e9 1e          	shr    $0x1e,%rcx
  40304e:	48 89 c6             	mov    %rax,%rsi
  403051:	49 89 ca             	mov    %rcx,%r10
  403054:	48 c1 e6 1f          	shl    $0x1f,%rsi
  403058:	49 c1 e2 1f          	shl    $0x1f,%r10
  40305c:	48 2b f0             	sub    %rax,%rsi
  40305f:	49 2b ca             	sub    %r10,%rcx
  403062:	48 2b f0             	sub    %rax,%rsi
  403065:	48 03 d1             	add    %rcx,%rdx
  403068:	49 89 55 00          	mov    %rdx,0x0(%r13)
  40306c:	48 8d 44 16 ff       	lea    -0x1(%rsi,%rdx,1),%rax
  403071:	48 3b c5             	cmp    %rbp,%rax
  403074:	77 9d                	ja     403013 <_ZNSt24uniform_int_distributionIjEclISt26linear_congruential_engineImLm16807ELm0ELm2147483647EEEEjRT_RKNS0_10param_typeE+0xe3>
  403076:	48 3b c6             	cmp    %rsi,%rax
  403079:	72 98                	jb     403013 <_ZNSt24uniform_int_distributionIjEclISt26linear_congruential_engineImLm16807ELm0ELm2147483647EEEEjRT_RKNS0_10param_typeE+0xe3>
  40307b:	4d 89 f1             	mov    %r14,%r9
  40307e:	4c 8b 64 24 20       	mov    0x20(%rsp),%r12
  403083:	4c 8b 6c 24 18       	mov    0x18(%rsp),%r13
  403088:	4c 8b 74 24 10       	mov    0x10(%rsp),%r14
  40308d:	4c 8b 7c 24 08       	mov    0x8(%rsp),%r15
  403092:	48 8b 1c 24          	mov    (%rsp),%rbx
  403096:	48 8b 6c 24 28       	mov    0x28(%rsp),%rbp
  40309b:	41 8b 31             	mov    (%r9),%esi
  40309e:	e9 07 ff ff ff       	jmpq   402faa <_ZNSt24uniform_int_distributionIjEclISt26linear_congruential_engineImLm16807ELm0ELm2147483647EEEEjRT_RKNS0_10param_typeE+0x7a>
  4030a3:	49 69 10 a7 41 00 00 	imul   $0x41a7,(%r8),%rdx
  4030aa:	48 b8 05 00 00 00 02 	movabs $0x200000005,%rax
  4030b1:	00 00 00 
  4030b4:	48 89 d7             	mov    %rdx,%rdi
  4030b7:	c4 62 f3 f6 d8       	mulx   %rax,%rcx,%r11
  4030bc:	49 2b fb             	sub    %r11,%rdi
  4030bf:	48 d1 ef             	shr    %rdi
  4030c2:	4c 03 df             	add    %rdi,%r11
  4030c5:	49 c1 eb 1e          	shr    $0x1e,%r11
  4030c9:	4d 89 d9             	mov    %r11,%r9
  4030cc:	49 c1 e1 1f          	shl    $0x1f,%r9
  4030d0:	4d 2b d9             	sub    %r9,%r11
  4030d3:	4d 8d 14 13          	lea    (%r11,%rdx,1),%r10
  4030d7:	4d 89 10             	mov    %r10,(%r8)
  4030da:	4a 8d 44 1a ff       	lea    -0x1(%rdx,%r11,1),%rax
  4030df:	e9 c6 fe ff ff       	jmpq   402faa <_ZNSt24uniform_int_distributionIjEclISt26linear_congruential_engineImLm16807ELm0ELm2147483647EEEEjRT_RKNS0_10param_typeE+0x7a>
  4030e4:	0f 1f 44 00 00       	nopl   0x0(%rax,%rax,1)
  4030e9:	0f 1f 80 00 00 00 00 	nopl   0x0(%rax)

00000000004030f0 <_ZSt10__fill_n_aIPfmfEN9__gnu_cxx11__enable_ifIXsr3std11__is_scalarIT1_EE7__valueET_E6__typeES4_T0_RKS3_>:
  4030f0:	48 89 d1             	mov    %rdx,%rcx
  4030f3:	48 89 fa             	mov    %rdi,%rdx
  4030f6:	c5 fa 10 01          	vmovss (%rcx),%xmm0
  4030fa:	48 85 f6             	test   %rsi,%rsi
  4030fd:	0f 86 c3 00 00 00    	jbe    4031c6 <_ZSt10__fill_n_aIPfmfEN9__gnu_cxx11__enable_ifIXsr3std11__is_scalarIT1_EE7__valueET_E6__typeES4_T0_RKS3_+0xd6>
  403103:	48 83 fe 10          	cmp    $0x10,%rsi
  403107:	0f 82 c0 00 00 00    	jb     4031cd <_ZSt10__fill_n_aIPfmfEN9__gnu_cxx11__enable_ifIXsr3std11__is_scalarIT1_EE7__valueET_E6__typeES4_T0_RKS3_+0xdd>
  40310d:	49 89 f9             	mov    %rdi,%r9
  403110:	49 83 e1 1f          	and    $0x1f,%r9
  403114:	49 f7 c1 03 00 00 00 	test   $0x3,%r9
  40311b:	74 12                	je     40312f <_ZSt10__fill_n_aIPfmfEN9__gnu_cxx11__enable_ifIXsr3std11__is_scalarIT1_EE7__valueET_E6__typeES4_T0_RKS3_+0x3f>
  40311d:	48 89 f1             	mov    %rsi,%rcx
  403120:	45 33 c9             	xor    %r9d,%r9d
  403123:	48 83 e1 0f          	and    $0xf,%rcx
  403127:	48 f7 d9             	neg    %rcx
  40312a:	48 03 ce             	add    %rsi,%rcx
  40312d:	eb 53                	jmp    403182 <_ZSt10__fill_n_aIPfmfEN9__gnu_cxx11__enable_ifIXsr3std11__is_scalarIT1_EE7__valueET_E6__typeES4_T0_RKS3_+0x92>
  40312f:	4d 85 c9             	test   %r9,%r9
  403132:	74 41                	je     403175 <_ZSt10__fill_n_aIPfmfEN9__gnu_cxx11__enable_ifIXsr3std11__is_scalarIT1_EE7__valueET_E6__typeES4_T0_RKS3_+0x85>
  403134:	49 f7 d9             	neg    %r9
  403137:	49 83 c1 20          	add    $0x20,%r9
  40313b:	49 c1 e9 02          	shr    $0x2,%r9
  40313f:	49 8d 49 10          	lea    0x10(%r9),%rcx
  403143:	48 3b f1             	cmp    %rcx,%rsi
  403146:	0f 82 81 00 00 00    	jb     4031cd <_ZSt10__fill_n_aIPfmfEN9__gnu_cxx11__enable_ifIXsr3std11__is_scalarIT1_EE7__valueET_E6__typeES4_T0_RKS3_+0xdd>
  40314c:	48 89 f1             	mov    %rsi,%rcx
  40314f:	45 33 c0             	xor    %r8d,%r8d
  403152:	49 2b c9             	sub    %r9,%rcx
  403155:	48 83 e1 0f          	and    $0xf,%rcx
  403159:	48 f7 d9             	neg    %rcx
  40315c:	48 03 ce             	add    %rsi,%rcx
  40315f:	49 83 f9 01          	cmp    $0x1,%r9
  403163:	72 1d                	jb     403182 <_ZSt10__fill_n_aIPfmfEN9__gnu_cxx11__enable_ifIXsr3std11__is_scalarIT1_EE7__valueET_E6__typeES4_T0_RKS3_+0x92>
  403165:	c4 a1 7a 11 04 87    	vmovss %xmm0,(%rdi,%r8,4)
  40316b:	49 ff c0             	inc    %r8
  40316e:	4d 3b c1             	cmp    %r9,%r8
  403171:	72 f2                	jb     403165 <_ZSt10__fill_n_aIPfmfEN9__gnu_cxx11__enable_ifIXsr3std11__is_scalarIT1_EE7__valueET_E6__typeES4_T0_RKS3_+0x75>
  403173:	eb 0d                	jmp    403182 <_ZSt10__fill_n_aIPfmfEN9__gnu_cxx11__enable_ifIXsr3std11__is_scalarIT1_EE7__valueET_E6__typeES4_T0_RKS3_+0x92>
  403175:	48 89 f1             	mov    %rsi,%rcx
  403178:	48 83 e1 0f          	and    $0xf,%rcx
  40317c:	48 f7 d9             	neg    %rcx
  40317f:	48 03 ce             	add    %rsi,%rcx
  403182:	c4 e2 7d 18 c8       	vbroadcastss %xmm0,%ymm1
  403187:	c4 a1 7c 11 0c 8f    	vmovups %ymm1,(%rdi,%r9,4)
  40318d:	c4 a1 7c 11 4c 8f 20 	vmovups %ymm1,0x20(%rdi,%r9,4)
  403194:	49 83 c1 10          	add    $0x10,%r9
  403198:	4c 3b c9             	cmp    %rcx,%r9
  40319b:	72 ea                	jb     403187 <_ZSt10__fill_n_aIPfmfEN9__gnu_cxx11__enable_ifIXsr3std11__is_scalarIT1_EE7__valueET_E6__typeES4_T0_RKS3_+0x97>
  40319d:	48 8d 3c 8f          	lea    (%rdi,%rcx,4),%rdi
  4031a1:	45 33 c0             	xor    %r8d,%r8d
  4031a4:	4c 8d 49 01          	lea    0x1(%rcx),%r9
  4031a8:	4c 3b ce             	cmp    %rsi,%r9
  4031ab:	77 19                	ja     4031c6 <_ZSt10__fill_n_aIPfmfEN9__gnu_cxx11__enable_ifIXsr3std11__is_scalarIT1_EE7__valueET_E6__typeES4_T0_RKS3_+0xd6>
  4031ad:	48 2b f1             	sub    %rcx,%rsi
  4031b0:	48 8d 04 8a          	lea    (%rdx,%rcx,4),%rax
  4031b4:	c4 a1 7a 11 04 80    	vmovss %xmm0,(%rax,%r8,4)
  4031ba:	49 ff c0             	inc    %r8
  4031bd:	4c 3b c6             	cmp    %rsi,%r8
  4031c0:	72 f2                	jb     4031b4 <_ZSt10__fill_n_aIPfmfEN9__gnu_cxx11__enable_ifIXsr3std11__is_scalarIT1_EE7__valueET_E6__typeES4_T0_RKS3_+0xc4>
  4031c2:	4a 8d 3c 80          	lea    (%rax,%r8,4),%rdi
  4031c6:	c5 f8 77             	vzeroupper 
  4031c9:	48 89 f8             	mov    %rdi,%rax
  4031cc:	c3                   	retq   
  4031cd:	33 c9                	xor    %ecx,%ecx
  4031cf:	eb d0                	jmp    4031a1 <_ZSt10__fill_n_aIPfmfEN9__gnu_cxx11__enable_ifIXsr3std11__is_scalarIT1_EE7__valueET_E6__typeES4_T0_RKS3_+0xb1>
  4031d1:	0f 1f 84 00 00 00 00 	nopl   0x0(%rax,%rax,1)
  4031d8:	00 
  4031d9:	0f 1f 80 00 00 00 00 	nopl   0x0(%rax)

00000000004031e0 <logl>:
  4031e0:	f3 0f 1e fa          	endbr64 
  4031e4:	e9 07 00 00 00       	jmpq   4031f0 <__libm_logl_ex>
  4031e9:	0f 1f 80 00 00 00 00 	nopl   0x0(%rax)

00000000004031f0 <__libm_logl_ex>:
  4031f0:	f3 0f 1e fa          	endbr64 
  4031f4:	53                   	push   %rbx
  4031f5:	48 81 ec 80 00 00 00 	sub    $0x80,%rsp
  4031fc:	db ac 24 90 00 00 00 	fldt   0x90(%rsp)
  403203:	d9 c0                	fld    %st(0)
  403205:	db 7c 24 50          	fstpt  0x50(%rsp)
  403209:	48 8b 74 24 50       	mov    0x50(%rsp),%rsi
  40320e:	d9 c0                	fld    %st(0)
  403210:	db 7c 24 20          	fstpt  0x20(%rsp)
  403214:	d9 7c 24 0c          	fnstcw 0xc(%rsp)
  403218:	48 8b 54 24 28       	mov    0x28(%rsp),%rdx
  40321d:	48 89 f1             	mov    %rsi,%rcx
  403220:	48 c1 e9 20          	shr    $0x20,%rcx
  403224:	89 d7                	mov    %edx,%edi
  403226:	0f a4 cf 10          	shld   $0x10,%ecx,%edi
  40322a:	81 ff ff 7f ff 7f    	cmp    $0x7fff7fff,%edi
  403230:	0f 87 bd 00 00 00    	ja     4032f3 <__libm_logl_ex+0x103>
  403236:	89 d0                	mov    %edx,%eax
  403238:	25 ff 7f 00 00       	and    $0x7fff,%eax
  40323d:	8d 9f 00 08 01 c0    	lea    -0x3ffef800(%rdi),%ebx
  403243:	81 fb 00 90 00 00    	cmp    $0x9000,%ebx
  403249:	0f 87 dc 00 00 00    	ja     40332b <__libm_logl_ex+0x13b>
  40324f:	81 c7 01 00 01 c0    	add    $0xc0010001,%edi
  403255:	81 ff 01 80 00 00    	cmp    $0x8001,%edi
  40325b:	0f 87 0b 02 00 00    	ja     40346c <__libm_logl_ex+0x27c>
  403261:	d9 ee                	fldz   
  403263:	3d ff 3f 00 00       	cmp    $0x3fff,%eax
  403268:	75 10                	jne    40327a <__libm_logl_ex+0x8a>
  40326a:	81 f9 00 00 00 80    	cmp    $0x80000000,%ecx
  403270:	75 08                	jne    40327a <__libm_logl_ex+0x8a>
  403272:	85 f6                	test   %esi,%esi
  403274:	0f 84 9f 03 00 00    	je     403619 <__libm_logl_ex+0x429>
  40327a:	dd d8                	fstp   %st(0)
  40327c:	0f b7 4c 24 0c       	movzwl 0xc(%rsp),%ecx
  403281:	89 c8                	mov    %ecx,%eax
  403283:	25 00 03 00 00       	and    $0x300,%eax
  403288:	3d 00 03 00 00       	cmp    $0x300,%eax
  40328d:	74 0f                	je     40329e <__libm_logl_ex+0xae>
  40328f:	81 c9 00 03 00 00    	or     $0x300,%ecx
  403295:	66 89 4c 24 0e       	mov    %cx,0xe(%rsp)
  40329a:	d9 6c 24 0e          	fldcw  0xe(%rsp)
  40329e:	0f b7 c0             	movzwl %ax,%eax
  4032a1:	d9 e8                	fld1   
  4032a3:	d9 e0                	fchs   
  4032a5:	de c1                	faddp  %st,%st(1)
  4032a7:	d9 c0                	fld    %st(0)
  4032a9:	db 7c 24 20          	fstpt  0x20(%rsp)
  4032ad:	d9 c0                	fld    %st(0)
  4032af:	d8 c9                	fmul   %st(1),%st
  4032b1:	db 2d 39 3f 00 00    	fldt   0x3f39(%rip)        # 4071f0 <_IO_stdin_used+0x1f0>
  4032b7:	d8 c9                	fmul   %st(1),%st
  4032b9:	db 2d 41 3f 00 00    	fldt   0x3f41(%rip)        # 407200 <_IO_stdin_used+0x200>
  4032bf:	de c1                	faddp  %st,%st(1)
  4032c1:	d8 c9                	fmul   %st(1),%st
  4032c3:	db 2d 47 3f 00 00    	fldt   0x3f47(%rip)        # 407210 <_IO_stdin_used+0x210>
  4032c9:	d8 ca                	fmul   %st(2),%st
  4032cb:	d8 05 cf 3d 00 00    	fadds  0x3dcf(%rip)        # 4070a0 <_IO_stdin_used+0xa0>
  4032d1:	de ca                	fmulp  %st,%st(2)
  4032d3:	d8 ca                	fmul   %st(2),%st
  4032d5:	de c1                	faddp  %st,%st(1)
  4032d7:	de c1                	faddp  %st,%st(1)
  4032d9:	d9 c0                	fld    %st(0)
  4032db:	db 7c 24 10          	fstpt  0x10(%rsp)
  4032df:	3d 00 03 00 00       	cmp    $0x300,%eax
  4032e4:	0f 84 2b 03 00 00    	je     403615 <__libm_logl_ex+0x425>
  4032ea:	d9 6c 24 0c          	fldcw  0xc(%rsp)
  4032ee:	e9 22 03 00 00       	jmpq   403615 <__libm_logl_ex+0x425>
  4032f3:	0f b7 44 24 0c       	movzwl 0xc(%rsp),%eax
  4032f8:	89 c3                	mov    %eax,%ebx
  4032fa:	81 e3 00 03 00 00    	and    $0x300,%ebx
  403300:	81 fb 00 03 00 00    	cmp    $0x300,%ebx
  403306:	74 0e                	je     403316 <__libm_logl_ex+0x126>
  403308:	0d 00 03 00 00       	or     $0x300,%eax
  40330d:	66 89 44 24 0e       	mov    %ax,0xe(%rsp)
  403312:	d9 6c 24 0e          	fldcw  0xe(%rsp)
  403316:	f7 c2 00 80 00 00    	test   $0x8000,%edx
  40331c:	0f 85 1e 01 00 00    	jne    403440 <__libm_logl_ex+0x250>
  403322:	db 7c 24 10          	fstpt  0x10(%rsp)
  403326:	e9 d8 02 00 00       	jmpq   403603 <__libm_logl_ex+0x413>
  40332b:	0f b7 7c 24 0c       	movzwl 0xc(%rsp),%edi
  403330:	89 fe                	mov    %edi,%esi
  403332:	81 e6 00 03 00 00    	and    $0x300,%esi
  403338:	81 fe 00 03 00 00    	cmp    $0x300,%esi
  40333e:	74 0f                	je     40334f <__libm_logl_ex+0x15f>
  403340:	81 cf 00 03 00 00    	or     $0x300,%edi
  403346:	66 89 7c 24 0e       	mov    %di,0xe(%rsp)
  40334b:	d9 6c 24 0e          	fldcw  0xe(%rsp)
  40334f:	48 89 d7             	mov    %rdx,%rdi
  403352:	48 c1 e7 31          	shl    $0x31,%rdi
  403356:	bf 01 c0 ff ff       	mov    $0xffffc001,%edi
  40335b:	0f 84 c3 02 00 00    	je     403624 <__libm_logl_ex+0x434>
  403361:	dd d8                	fstp   %st(0)
  403363:	01 f8                	add    %edi,%eax
  403365:	0f b7 f6             	movzwl %si,%esi
  403368:	48 81 e2 00 80 ff ff 	and    $0xffffffffffff8000,%rdx
  40336f:	48 81 ca ff 3f 00 00 	or     $0x3fff,%rdx
  403376:	c1 e9 17             	shr    $0x17,%ecx
  403379:	0f b6 f9             	movzbl %cl,%edi
  40337c:	48 89 54 24 28       	mov    %rdx,0x28(%rsp)
  403381:	db 6c 24 20          	fldt   0x20(%rsp)
  403385:	d9 c0                	fld    %st(0)
  403387:	d8 05 07 3d 00 00    	fadds  0x3d07(%rip)        # 407094 <_IO_stdin_used+0x94>
  40338d:	d8 05 05 3d 00 00    	fadds  0x3d05(%rip)        # 407098 <_IO_stdin_used+0x98>
  403393:	8d 0c 3f             	lea    (%rdi,%rdi,1),%ecx
  403396:	dc e9                	fsubr  %st,%st(1)
  403398:	48 c7 c2 30 82 40 00 	mov    $0x408230,%rdx
  40339f:	d9 04 ba             	flds   (%rdx,%rdi,4)
  4033a2:	dc c9                	fmul   %st,%st(1)
  4033a4:	de ca                	fmulp  %st,%st(2)
  4033a6:	d9 e8                	fld1   
  4033a8:	d9 e0                	fchs   
  4033aa:	de c1                	faddp  %st,%st(1)
  4033ac:	d9 c0                	fld    %st(0)
  4033ae:	d8 c2                	fadd   %st(2),%st
  4033b0:	d9 c0                	fld    %st(0)
  4033b2:	db 7c 24 20          	fstpt  0x20(%rsp)
  4033b6:	d9 c0                	fld    %st(0)
  4033b8:	d8 c9                	fmul   %st(1),%st
  4033ba:	db 2d f0 3c 00 00    	fldt   0x3cf0(%rip)        # 4070b0 <_IO_stdin_used+0xb0>
  4033c0:	d8 c9                	fmul   %st(1),%st
  4033c2:	db 2d f8 3c 00 00    	fldt   0x3cf8(%rip)        # 4070c0 <_IO_stdin_used+0xc0>
  4033c8:	de c1                	faddp  %st,%st(1)
  4033ca:	d8 c9                	fmul   %st(1),%st
  4033cc:	db 2d fe 3c 00 00    	fldt   0x3cfe(%rip)        # 4070d0 <_IO_stdin_used+0xd0>
  4033d2:	de c1                	faddp  %st,%st(1)
  4033d4:	d8 c9                	fmul   %st(1),%st
  4033d6:	db 2d 04 3d 00 00    	fldt   0x3d04(%rip)        # 4070e0 <_IO_stdin_used+0xe0>
  4033dc:	d8 ca                	fmul   %st(2),%st
  4033de:	db 2d 0c 3d 00 00    	fldt   0x3d0c(%rip)        # 4070f0 <_IO_stdin_used+0xf0>
  4033e4:	de c1                	faddp  %st,%st(1)
  4033e6:	d8 ca                	fmul   %st(2),%st
  4033e8:	db 2d 12 3d 00 00    	fldt   0x3d12(%rip)        # 407100 <_IO_stdin_used+0x100>
  4033ee:	de c1                	faddp  %st,%st(1)
  4033f0:	de ca                	fmulp  %st,%st(2)
  4033f2:	de ca                	fmulp  %st,%st(2)
  4033f4:	de c1                	faddp  %st,%st(1)
  4033f6:	de c2                	faddp  %st,%st(2)
  4033f8:	8d 54 3f 01          	lea    0x1(%rdi,%rdi,1),%edx
  4033fc:	89 44 24 3c          	mov    %eax,0x3c(%rsp)
  403400:	db 44 24 3c          	fildl  0x3c(%rsp)
  403404:	d9 c0                	fld    %st(0)
  403406:	dc 0d 14 3e 00 00    	fmull  0x3e14(%rip)        # 407220 <_IO_stdin_used+0x220>
  40340c:	48 c7 c0 30 72 40 00 	mov    $0x407230,%rax
  403413:	dc 04 d0             	faddl  (%rax,%rdx,8)
  403416:	de c3                	faddp  %st,%st(3)
  403418:	dc 0d 0a 3e 00 00    	fmull  0x3e0a(%rip)        # 407228 <_IO_stdin_used+0x228>
  40341e:	dc 04 c8             	faddl  (%rax,%rcx,8)
  403421:	de c1                	faddp  %st,%st(1)
  403423:	de c1                	faddp  %st,%st(1)
  403425:	d9 c0                	fld    %st(0)
  403427:	db 7c 24 10          	fstpt  0x10(%rsp)
  40342b:	81 fe 00 03 00 00    	cmp    $0x300,%esi
  403431:	0f 84 de 01 00 00    	je     403615 <__libm_logl_ex+0x425>
  403437:	d9 6c 24 0c          	fldcw  0xc(%rsp)
  40343b:	e9 d5 01 00 00       	jmpq   403615 <__libm_logl_ex+0x425>
  403440:	81 e2 ff 7f 00 00    	and    $0x7fff,%edx
  403446:	48 81 fa ff 7f 00 00 	cmp    $0x7fff,%rdx
  40344d:	0f 85 5f 01 00 00    	jne    4035b2 <__libm_logl_ex+0x3c2>
  403453:	81 f9 00 00 00 80    	cmp    $0x80000000,%ecx
  403459:	0f 85 c3 fe ff ff    	jne    403322 <__libm_logl_ex+0x132>
  40345f:	85 f6                	test   %esi,%esi
  403461:	0f 84 79 01 00 00    	je     4035e0 <__libm_logl_ex+0x3f0>
  403467:	e9 b6 fe ff ff       	jmpq   403322 <__libm_logl_ex+0x132>
  40346c:	0f b7 4c 24 0c       	movzwl 0xc(%rsp),%ecx
  403471:	89 c8                	mov    %ecx,%eax
  403473:	25 00 03 00 00       	and    $0x300,%eax
  403478:	3d 00 03 00 00       	cmp    $0x300,%eax
  40347d:	74 0f                	je     40348e <__libm_logl_ex+0x29e>
  40347f:	81 c9 00 03 00 00    	or     $0x300,%ecx
  403485:	66 89 4c 24 0e       	mov    %cx,0xe(%rsp)
  40348a:	d9 6c 24 0e          	fldcw  0xe(%rsp)
  40348e:	d9 e8                	fld1   
  403490:	d9 e0                	fchs   
  403492:	de c1                	faddp  %st,%st(1)
  403494:	d9 c0                	fld    %st(0)
  403496:	d8 0d 00 3c 00 00    	fmuls  0x3c00(%rip)        # 40709c <_IO_stdin_used+0x9c>
  40349c:	d9 c1                	fld    %st(1)
  40349e:	d8 c1                	fadd   %st(1),%st
  4034a0:	de e1                	fsubp  %st,%st(1)
  4034a2:	d9 c1                	fld    %st(1)
  4034a4:	d8 e1                	fsub   %st(1),%st
  4034a6:	d9 c2                	fld    %st(2)
  4034a8:	d8 c9                	fmul   %st(1),%st
  4034aa:	d9 c2                	fld    %st(2)
  4034ac:	d8 ca                	fmul   %st(2),%st
  4034ae:	de c1                	faddp  %st,%st(1)
  4034b0:	d9 c0                	fld    %st(0)
  4034b2:	db 7c 24 74          	fstpt  0x74(%rsp)
  4034b6:	d9 c2                	fld    %st(2)
  4034b8:	d8 cb                	fmul   %st(3),%st
  4034ba:	d9 c0                	fld    %st(0)
  4034bc:	db 7c 24 68          	fstpt  0x68(%rsp)
  4034c0:	de c1                	faddp  %st,%st(1)
  4034c2:	db 2d 48 3c 00 00    	fldt   0x3c48(%rip)        # 407110 <_IO_stdin_used+0x110>
  4034c8:	d8 c9                	fmul   %st(1),%st
  4034ca:	db 2d 50 3c 00 00    	fldt   0x3c50(%rip)        # 407120 <_IO_stdin_used+0x120>
  4034d0:	de c1                	faddp  %st,%st(1)
  4034d2:	d8 c9                	fmul   %st(1),%st
  4034d4:	db 2d 56 3c 00 00    	fldt   0x3c56(%rip)        # 407130 <_IO_stdin_used+0x130>
  4034da:	de c1                	faddp  %st,%st(1)
  4034dc:	d8 c9                	fmul   %st(1),%st
  4034de:	db 2d 5c 3c 00 00    	fldt   0x3c5c(%rip)        # 407140 <_IO_stdin_used+0x140>
  4034e4:	de c1                	faddp  %st,%st(1)
  4034e6:	d8 c9                	fmul   %st(1),%st
  4034e8:	db 2d 62 3c 00 00    	fldt   0x3c62(%rip)        # 407150 <_IO_stdin_used+0x150>
  4034ee:	de c1                	faddp  %st,%st(1)
  4034f0:	d8 c9                	fmul   %st(1),%st
  4034f2:	db 2d 68 3c 00 00    	fldt   0x3c68(%rip)        # 407160 <_IO_stdin_used+0x160>
  4034f8:	de c1                	faddp  %st,%st(1)
  4034fa:	d8 c9                	fmul   %st(1),%st
  4034fc:	db 2d 6e 3c 00 00    	fldt   0x3c6e(%rip)        # 407170 <_IO_stdin_used+0x170>
  403502:	de c1                	faddp  %st,%st(1)
  403504:	db 2d 76 3c 00 00    	fldt   0x3c76(%rip)        # 407180 <_IO_stdin_used+0x180>
  40350a:	d8 ca                	fmul   %st(2),%st
  40350c:	db 2d 7e 3c 00 00    	fldt   0x3c7e(%rip)        # 407190 <_IO_stdin_used+0x190>
  403512:	de c1                	faddp  %st,%st(1)
  403514:	d8 ca                	fmul   %st(2),%st
  403516:	db 2d 84 3c 00 00    	fldt   0x3c84(%rip)        # 4071a0 <_IO_stdin_used+0x1a0>
  40351c:	de c1                	faddp  %st,%st(1)
  40351e:	d8 ca                	fmul   %st(2),%st
  403520:	db 2d 8a 3c 00 00    	fldt   0x3c8a(%rip)        # 4071b0 <_IO_stdin_used+0x1b0>
  403526:	de c1                	faddp  %st,%st(1)
  403528:	d8 ca                	fmul   %st(2),%st
  40352a:	db 2d 90 3c 00 00    	fldt   0x3c90(%rip)        # 4071c0 <_IO_stdin_used+0x1c0>
  403530:	de c1                	faddp  %st,%st(1)
  403532:	d8 ca                	fmul   %st(2),%st
  403534:	db 2d 96 3c 00 00    	fldt   0x3c96(%rip)        # 4071d0 <_IO_stdin_used+0x1d0>
  40353a:	de c1                	faddp  %st,%st(1)
  40353c:	d8 ca                	fmul   %st(2),%st
  40353e:	db 2d 9c 3c 00 00    	fldt   0x3c9c(%rip)        # 4071e0 <_IO_stdin_used+0x1e0>
  403544:	de c1                	faddp  %st,%st(1)
  403546:	d9 c5                	fld    %st(5)
  403548:	db 7c 24 20          	fstpt  0x20(%rsp)
  40354c:	de cd                	fmulp  %st,%st(5)
  40354e:	de c9                	fmulp  %st,%st(1)
  403550:	de c3                	faddp  %st,%st(3)
  403552:	d9 05 48 3b 00 00    	flds   0x3b48(%rip)        # 4070a0 <_IO_stdin_used+0xa0>
  403558:	d9 05 46 3b 00 00    	flds   0x3b46(%rip)        # 4070a4 <_IO_stdin_used+0xa4>
  40355e:	db 6c 24 68          	fldt   0x68(%rsp)
  403562:	d8 c9                	fmul   %st(1),%st
  403564:	d9 c4                	fld    %st(4)
  403566:	d8 cb                	fmul   %st(3),%st
  403568:	de c1                	faddp  %st,%st(1)
  40356a:	db 6c 24 74          	fldt   0x74(%rsp)
  40356e:	de ca                	fmulp  %st,%st(2)
  403570:	d9 c9                	fxch   %st(1)
  403572:	de c5                	faddp  %st,%st(5)
  403574:	d9 c9                	fxch   %st(1)
  403576:	d8 ca                	fmul   %st(2),%st
  403578:	de c4                	faddp  %st,%st(4)
  40357a:	d9 c0                	fld    %st(0)
  40357c:	d8 c4                	fadd   %st(4),%st
  40357e:	d8 ca                	fmul   %st(2),%st
  403580:	d9 cc                	fxch   %st(4)
  403582:	d8 cb                	fmul   %st(3),%st
  403584:	de c4                	faddp  %st,%st(4)
  403586:	d8 ca                	fmul   %st(2),%st
  403588:	d9 c9                	fxch   %st(1)
  40358a:	de c3                	faddp  %st,%st(3)
  40358c:	d9 c1                	fld    %st(1)
  40358e:	d8 c1                	fadd   %st(1),%st
  403590:	dc ea                	fsubr  %st,%st(2)
  403592:	d9 c9                	fxch   %st(1)
  403594:	de c2                	faddp  %st,%st(2)
  403596:	d9 c9                	fxch   %st(1)
  403598:	de c2                	faddp  %st,%st(2)
  40359a:	de c1                	faddp  %st,%st(1)
  40359c:	0f b7 c0             	movzwl %ax,%eax
  40359f:	d9 c0                	fld    %st(0)
  4035a1:	db 7c 24 10          	fstpt  0x10(%rsp)
  4035a5:	3d 00 03 00 00       	cmp    $0x300,%eax
  4035aa:	74 69                	je     403615 <__libm_logl_ex+0x425>
  4035ac:	d9 6c 24 0c          	fldcw  0xc(%rsp)
  4035b0:	eb 63                	jmp    403615 <__libm_logl_ex+0x425>
  4035b2:	dd d8                	fstp   %st(0)
  4035b4:	48 85 d2             	test   %rdx,%rdx
  4035b7:	d9 ee                	fldz   
  4035b9:	75 25                	jne    4035e0 <__libm_logl_ex+0x3f0>
  4035bb:	dd d8                	fstp   %st(0)
  4035bd:	09 f1                	or     %esi,%ecx
  4035bf:	d9 ee                	fldz   
  4035c1:	75 1d                	jne    4035e0 <__libm_logl_ex+0x3f0>
  4035c3:	dd d8                	fstp   %st(0)
  4035c5:	d9 05 bd 3a 00 00    	flds   0x3abd(%rip)        # 407088 <_IO_stdin_used+0x88>
  4035cb:	db 7c 24 10          	fstpt  0x10(%rsp)
  4035cf:	48 8d 7c 24 20       	lea    0x20(%rsp),%rdi
  4035d4:	48 8d 54 24 10       	lea    0x10(%rsp),%rdx
  4035d9:	48 89 fe             	mov    %rdi,%rsi
  4035dc:	31 c9                	xor    %ecx,%ecx
  4035de:	eb 1e                	jmp    4035fe <__libm_logl_ex+0x40e>
  4035e0:	dd d8                	fstp   %st(0)
  4035e2:	d9 05 a4 3a 00 00    	flds   0x3aa4(%rip)        # 40708c <_IO_stdin_used+0x8c>
  4035e8:	db 7c 24 10          	fstpt  0x10(%rsp)
  4035ec:	48 8d 7c 24 20       	lea    0x20(%rsp),%rdi
  4035f1:	48 8d 54 24 10       	lea    0x10(%rsp),%rdx
  4035f6:	48 89 fe             	mov    %rdi,%rsi
  4035f9:	b9 01 00 00 00       	mov    $0x1,%ecx
  4035fe:	e8 bd 01 00 00       	callq  4037c0 <__libm_error_support>
  403603:	0f b7 c3             	movzwl %bx,%eax
  403606:	3d 00 03 00 00       	cmp    $0x300,%eax
  40360b:	74 04                	je     403611 <__libm_logl_ex+0x421>
  40360d:	d9 6c 24 0c          	fldcw  0xc(%rsp)
  403611:	db 6c 24 10          	fldt   0x10(%rsp)
  403615:	d9 ee                	fldz   
  403617:	d9 c9                	fxch   %st(1)
  403619:	dd d9                	fstp   %st(1)
  40361b:	48 81 c4 80 00 00 00 	add    $0x80,%rsp
  403622:	5b                   	pop    %rbx
  403623:	c3                   	retq   
  403624:	d8 0d 66 3a 00 00    	fmuls  0x3a66(%rip)        # 407090 <_IO_stdin_used+0x90>
  40362a:	d9 c0                	fld    %st(0)
  40362c:	db 7c 24 20          	fstpt  0x20(%rsp)
  403630:	d9 ee                	fldz   
  403632:	d9 c9                	fxch   %st(1)
  403634:	db e9                	fucomi %st(1),%st
  403636:	dd d9                	fstp   %st(1)
  403638:	75 33                	jne    40366d <__libm_logl_ex+0x47d>
  40363a:	7a 31                	jp     40366d <__libm_logl_ex+0x47d>
  40363c:	dd d8                	fstp   %st(0)
  40363e:	0f b7 de             	movzwl %si,%ebx
  403641:	d9 05 41 3a 00 00    	flds   0x3a41(%rip)        # 407088 <_IO_stdin_used+0x88>
  403647:	db 7c 24 10          	fstpt  0x10(%rsp)
  40364b:	48 8d 7c 24 20       	lea    0x20(%rsp),%rdi
  403650:	48 8d 54 24 10       	lea    0x10(%rsp),%rdx
  403655:	48 89 fe             	mov    %rdi,%rsi
  403658:	31 c9                	xor    %ecx,%ecx
  40365a:	e8 61 01 00 00       	callq  4037c0 <__libm_error_support>
  40365f:	81 fb 00 03 00 00    	cmp    $0x300,%ebx
  403665:	74 aa                	je     403611 <__libm_logl_ex+0x421>
  403667:	d9 6c 24 0c          	fldcw  0xc(%rsp)
  40366b:	eb a4                	jmp    403611 <__libm_logl_ex+0x421>
  40366d:	db 7c 24 40          	fstpt  0x40(%rsp)
  403671:	8b 4c 24 44          	mov    0x44(%rsp),%ecx
  403675:	48 8b 54 24 28       	mov    0x28(%rsp),%rdx
  40367a:	89 d0                	mov    %edx,%eax
  40367c:	25 ff 7f 00 00       	and    $0x7fff,%eax
  403681:	bf b6 bf ff ff       	mov    $0xffffbfb6,%edi
  403686:	d9 ee                	fldz   
  403688:	e9 d4 fc ff ff       	jmpq   403361 <__libm_logl_ex+0x171>
  40368d:	0f 1f 00             	nopl   (%rax)

0000000000403690 <__libm_setusermatherrf>:
  403690:	f3 0f 1e fa          	endbr64 
  403694:	48 85 ff             	test   %rdi,%rdi
  403697:	75 07                	jne    4036a0 <__libm_setusermatherrf+0x10>
  403699:	48 c7 c7 e0 40 40 00 	mov    $0x4040e0,%rdi
  4036a0:	48 c7 c0 98 e1 40 00 	mov    $0x40e198,%rax
  4036a7:	48 89 38             	mov    %rdi,(%rax)
  4036aa:	c3                   	retq   
  4036ab:	0f 1f 44 00 00       	nopl   0x0(%rax,%rax,1)

00000000004036b0 <__libm_setusermatherr>:
  4036b0:	f3 0f 1e fa          	endbr64 
  4036b4:	48 85 ff             	test   %rdi,%rdi
  4036b7:	75 07                	jne    4036c0 <__libm_setusermatherr+0x10>
  4036b9:	48 c7 c7 d0 40 40 00 	mov    $0x4040d0,%rdi
  4036c0:	48 c7 c0 a0 e1 40 00 	mov    $0x40e1a0,%rax
  4036c7:	48 89 38             	mov    %rdi,(%rax)
  4036ca:	c3                   	retq   
  4036cb:	0f 1f 44 00 00       	nopl   0x0(%rax,%rax,1)

00000000004036d0 <__libm_setusermatherrl>:
  4036d0:	f3 0f 1e fa          	endbr64 
  4036d4:	48 85 ff             	test   %rdi,%rdi
  4036d7:	75 07                	jne    4036e0 <__libm_setusermatherrl+0x10>
  4036d9:	48 c7 c7 f0 40 40 00 	mov    $0x4040f0,%rdi
  4036e0:	48 c7 c0 a8 e1 40 00 	mov    $0x40e1a8,%rax
  4036e7:	48 89 38             	mov    %rdi,(%rax)
  4036ea:	c3                   	retq   
  4036eb:	0f 1f 44 00 00       	nopl   0x0(%rax,%rax,1)

00000000004036f0 <__libm_copy_value>:
  4036f0:	f3 0f 1e fa          	endbr64 
  4036f4:	85 d2                	test   %edx,%edx
  4036f6:	7e 38                	jle    403730 <__libm_copy_value+0x40>
  4036f8:	89 d0                	mov    %edx,%eax
  4036fa:	48 8d 0c 46          	lea    (%rsi,%rax,2),%rcx
  4036fe:	48 83 c1 fe          	add    $0xfffffffffffffffe,%rcx
  403702:	48 39 f9             	cmp    %rdi,%rcx
  403705:	72 2a                	jb     403731 <__libm_copy_value+0x41>
  403707:	48 8d 0c 47          	lea    (%rdi,%rax,2),%rcx
  40370b:	48 83 c1 fe          	add    $0xfffffffffffffffe,%rcx
  40370f:	48 39 f1             	cmp    %rsi,%rcx
  403712:	72 1d                	jb     403731 <__libm_copy_value+0x41>
  403714:	31 c9                	xor    %ecx,%ecx
  403716:	66 2e 0f 1f 84 00 00 	nopw   %cs:0x0(%rax,%rax,1)
  40371d:	00 00 00 
  403720:	0f b7 14 4e          	movzwl (%rsi,%rcx,2),%edx
  403724:	66 89 14 4f          	mov    %dx,(%rdi,%rcx,2)
  403728:	48 ff c1             	inc    %rcx
  40372b:	48 39 c8             	cmp    %rcx,%rax
  40372e:	75 f0                	jne    403720 <__libm_copy_value+0x30>
  403730:	c3                   	retq   
  403731:	83 fa 08             	cmp    $0x8,%edx
  403734:	72 1b                	jb     403751 <__libm_copy_value+0x61>
  403736:	48 8d 0c 00          	lea    (%rax,%rax,1),%rcx
  40373a:	48 83 e1 f0          	and    $0xfffffffffffffff0,%rcx
  40373e:	31 d2                	xor    %edx,%edx
  403740:	0f 10 04 16          	movups (%rsi,%rdx,1),%xmm0
  403744:	0f 11 04 17          	movups %xmm0,(%rdi,%rdx,1)
  403748:	48 83 c2 10          	add    $0x10,%rdx
  40374c:	48 39 d1             	cmp    %rdx,%rcx
  40374f:	75 ef                	jne    403740 <__libm_copy_value+0x50>
  403751:	89 c1                	mov    %eax,%ecx
  403753:	83 e1 07             	and    $0x7,%ecx
  403756:	48 ff c9             	dec    %rcx
  403759:	48 83 f9 06          	cmp    $0x6,%rcx
  40375d:	77 d1                	ja     403730 <__libm_copy_value+0x40>
  40375f:	83 e0 f8             	and    $0xfffffff8,%eax
  403762:	48 8d 15 c7 56 00 00 	lea    0x56c7(%rip),%rdx        # 408e30 <__libm_double_rcp_table_256+0x800>
  403769:	48 63 0c 8a          	movslq (%rdx,%rcx,4),%rcx
  40376d:	48 01 d1             	add    %rdx,%rcx
  403770:	3e ff e1             	notrack jmpq *%rcx
  403773:	0f b7 4c 46 0c       	movzwl 0xc(%rsi,%rax,2),%ecx
  403778:	66 89 4c 47 0c       	mov    %cx,0xc(%rdi,%rax,2)
  40377d:	0f b7 4c 46 0a       	movzwl 0xa(%rsi,%rax,2),%ecx
  403782:	66 89 4c 47 0a       	mov    %cx,0xa(%rdi,%rax,2)
  403787:	0f b7 4c 46 08       	movzwl 0x8(%rsi,%rax,2),%ecx
  40378c:	66 89 4c 47 08       	mov    %cx,0x8(%rdi,%rax,2)
  403791:	0f b7 4c 46 06       	movzwl 0x6(%rsi,%rax,2),%ecx
  403796:	66 89 4c 47 06       	mov    %cx,0x6(%rdi,%rax,2)
  40379b:	0f b7 4c 46 04       	movzwl 0x4(%rsi,%rax,2),%ecx
  4037a0:	66 89 4c 47 04       	mov    %cx,0x4(%rdi,%rax,2)
  4037a5:	0f b7 4c 46 02       	movzwl 0x2(%rsi,%rax,2),%ecx
  4037aa:	66 89 4c 47 02       	mov    %cx,0x2(%rdi,%rax,2)
  4037af:	0f b7 0c 46          	movzwl (%rsi,%rax,2),%ecx
  4037b3:	66 89 0c 47          	mov    %cx,(%rdi,%rax,2)
  4037b7:	c3                   	retq   
  4037b8:	0f 1f 84 00 00 00 00 	nopl   0x0(%rax,%rax,1)
  4037bf:	00 

00000000004037c0 <__libm_error_support>:
  4037c0:	f3 0f 1e fa          	endbr64 
  4037c4:	55                   	push   %rbp
  4037c5:	41 57                	push   %r15
  4037c7:	41 56                	push   %r14
  4037c9:	41 55                	push   %r13
  4037cb:	41 54                	push   %r12
  4037cd:	53                   	push   %rbx
  4037ce:	48 81 ec d8 00 00 00 	sub    $0xd8,%rsp
  4037d5:	64 48 8b 04 25 28 00 	mov    %fs:0x28,%rax
  4037dc:	00 00 
  4037de:	48 89 84 24 d0 00 00 	mov    %rax,0xd0(%rsp)
  4037e5:	00 
  4037e6:	48 c7 c0 98 e1 40 00 	mov    $0x40e198,%rax
  4037ed:	48 8b 00             	mov    (%rax),%rax
  4037f0:	48 89 44 24 50       	mov    %rax,0x50(%rsp)
  4037f5:	48 c7 c0 a0 e1 40 00 	mov    $0x40e1a0,%rax
  4037fc:	48 8b 00             	mov    (%rax),%rax
  4037ff:	48 89 44 24 58       	mov    %rax,0x58(%rsp)
  403804:	48 c7 c0 a8 e1 40 00 	mov    $0x40e1a8,%rax
  40380b:	48 8b 00             	mov    (%rax),%rax
  40380e:	48 89 44 24 60       	mov    %rax,0x60(%rsp)
  403813:	48 c7 44 24 68 00 00 	movq   $0x0,0x68(%rsp)
  40381a:	00 00 
  40381c:	48 c7 c0 90 e1 40 00 	mov    $0x40e190,%rax
  403823:	8b 00                	mov    (%rax),%eax
  403825:	83 f8 ff             	cmp    $0xffffffff,%eax
  403828:	0f 84 bc 05 00 00    	je     403dea <__libm_error_support+0x62a>
  40382e:	48 89 d3             	mov    %rdx,%rbx
  403831:	49 89 f6             	mov    %rsi,%r14
  403834:	49 89 ff             	mov    %rdi,%r15
  403837:	89 c9                	mov    %ecx,%ecx
  403839:	48 8d 15 80 58 00 00 	lea    0x5880(%rip),%rdx        # 4090c0 <__libm_err_code_mapping_table>
  403840:	0f b7 34 8a          	movzwl (%rdx,%rcx,4),%esi
  403844:	89 f1                	mov    %esi,%ecx
  403846:	83 e1 7f             	and    $0x7f,%ecx
  403849:	48 8d 15 c0 5e 00 00 	lea    0x5ec0(%rip),%rdx        # 409710 <__libm_err_data_table>
  403850:	8b 14 8a             	mov    (%rdx,%rcx,4),%edx
  403853:	89 d7                	mov    %edx,%edi
  403855:	83 e7 07             	and    $0x7,%edi
  403858:	89 d1                	mov    %edx,%ecx
  40385a:	c1 e9 03             	shr    $0x3,%ecx
  40385d:	83 e1 07             	and    $0x7,%ecx
  403860:	89 4c 24 2c          	mov    %ecx,0x2c(%rsp)
  403864:	48 89 f1             	mov    %rsi,%rcx
  403867:	48 c1 e9 09          	shr    $0x9,%rcx
  40386b:	48 89 4c 24 30       	mov    %rcx,0x30(%rsp)
  403870:	c1 ee 07             	shr    $0x7,%esi
  403873:	83 e6 03             	and    $0x3,%esi
  403876:	01 c0                	add    %eax,%eax
  403878:	8d 0c 40             	lea    (%rax,%rax,2),%ecx
  40387b:	80 c1 06             	add    $0x6,%cl
  40387e:	d3 fa                	sar    %cl,%edx
  403880:	83 e2 3f             	and    $0x3f,%edx
  403883:	48 8d 05 36 5f 00 00 	lea    0x5f36(%rip),%rax        # 4097c0 <__libm_err_response_table>
  40388a:	0f b7 14 90          	movzwl (%rax,%rdx,4),%edx
  40388e:	89 d0                	mov    %edx,%eax
  403890:	c1 e8 02             	shr    $0x2,%eax
  403893:	25 f8 00 00 00       	and    $0xf8,%eax
  403898:	48 8d 0d 51 56 00 00 	lea    0x5651(%rip),%rcx        # 408ef0 <__libm_action_list>
  40389f:	4c 8b 24 08          	mov    (%rax,%rcx,1),%r12
  4038a3:	89 d0                	mov    %edx,%eax
  4038a5:	c1 e8 03             	shr    $0x3,%eax
  4038a8:	83 e0 03             	and    $0x3,%eax
  4038ab:	89 44 24 10          	mov    %eax,0x10(%rsp)
  4038af:	83 e2 07             	and    $0x7,%edx
  4038b2:	89 54 24 14          	mov    %edx,0x14(%rsp)
  4038b6:	48 89 74 24 38       	mov    %rsi,0x38(%rsp)
  4038bb:	48 8d 04 76          	lea    (%rsi,%rsi,2),%rax
  4038bf:	48 8d 0d aa 9c 00 00 	lea    0x9caa(%rip),%rcx        # 40d570 <__libm_error_support.__libm_type_info_table>
  4038c6:	4c 8d 04 c1          	lea    (%rcx,%rax,8),%r8
  4038ca:	48 89 7c 24 48       	mov    %rdi,0x48(%rsp)
  4038cf:	48 c1 e7 02          	shl    $0x2,%rdi
  4038d3:	48 89 7c 24 40       	mov    %rdi,0x40(%rsp)
  4038d8:	4c 8d 2d 6d 55 00 00 	lea    0x556d(%rip),%r13        # 408e4c <__libm_double_rcp_table_256+0x81c>
  4038df:	c7 44 24 0c 00 00 00 	movl   $0x0,0xc(%rsp)
  4038e6:	00 
  4038e7:	31 c0                	xor    %eax,%eax
  4038e9:	48 89 44 24 20       	mov    %rax,0x20(%rsp)
  4038ee:	4c 89 44 24 18       	mov    %r8,0x18(%rsp)
  4038f3:	eb 3b                	jmp    403930 <__libm_error_support+0x170>
  4038f5:	48 8b 44 24 30       	mov    0x30(%rsp),%rax
  4038fa:	48 8d 0d cf 9c 00 00 	lea    0x9ccf(%rip),%rcx        # 40d5d0 <__libm_func_names>
  403901:	48 8b 34 c1          	mov    (%rcx,%rax,8),%rsi
  403905:	49 8b 10             	mov    (%r8),%rdx
  403908:	48 8b 44 24 40       	mov    0x40(%rsp),%rax
  40390d:	48 8d 3d c0 55 00 00 	lea    0x55c0(%rip),%rdi        # 408ed4 <reltable.__libm_error_support>
  403914:	48 63 0c 38          	movslq (%rax,%rdi,1),%rcx
  403918:	48 01 f9             	add    %rdi,%rcx
  40391b:	8b 7c 24 2c          	mov    0x2c(%rsp),%edi
  40391f:	31 c0                	xor    %eax,%eax
  403921:	e8 fa 04 00 00       	callq  403e20 <write_message>
  403926:	4c 8b 44 24 18       	mov    0x18(%rsp),%r8
  40392b:	0f 1f 44 00 00       	nopl   0x0(%rax,%rax,1)
  403930:	4c 89 e5             	mov    %r12,%rbp
  403933:	89 e8                	mov    %ebp,%eax
  403935:	83 e0 0f             	and    $0xf,%eax
  403938:	49 c1 fc 04          	sar    $0x4,%r12
  40393c:	83 f8 0c             	cmp    $0xc,%eax
  40393f:	77 ef                	ja     403930 <__libm_error_support+0x170>
  403941:	49 63 44 85 00       	movslq 0x0(%r13,%rax,4),%rax
  403946:	4c 01 e8             	add    %r13,%rax
  403949:	3e ff e0             	notrack jmpq *%rax
  40394c:	8b 44 24 10          	mov    0x10(%rsp),%eax
  403950:	48 8d 0d 95 62 00 00 	lea    0x6295(%rip),%rcx        # 409bec <__libm_error_support.__libm_errno_table>
  403957:	8b 2c 81             	mov    (%rcx,%rax,4),%ebp
  40395a:	e8 f1 e6 ff ff       	callq  402050 <__errno_location@plt>
  40395f:	4c 8b 44 24 18       	mov    0x18(%rsp),%r8
  403964:	89 28                	mov    %ebp,(%rax)
  403966:	eb c8                	jmp    403930 <__libm_error_support+0x170>
  403968:	48 83 e5 f0          	and    $0xfffffffffffffff0,%rbp
  40396c:	48 c1 e5 08          	shl    $0x8,%rbp
  403970:	48 81 cd 76 03 00 00 	or     $0x376,%rbp
  403977:	49 89 ec             	mov    %rbp,%r12
  40397a:	eb b4                	jmp    403930 <__libm_error_support+0x170>
  40397c:	49 0f be 40 08       	movsbq 0x8(%r8),%rax
  403981:	89 c1                	mov    %eax,%ecx
  403983:	49 8d 14 4f          	lea    (%r15,%rcx,2),%rdx
  403987:	48 83 c2 fe          	add    $0xfffffffffffffffe,%rdx
  40398b:	48 39 da             	cmp    %rbx,%rdx
  40398e:	0f 82 3e 02 00 00    	jb     403bd2 <__libm_error_support+0x412>
  403994:	48 8d 14 4b          	lea    (%rbx,%rcx,2),%rdx
  403998:	48 83 c2 fe          	add    $0xfffffffffffffffe,%rdx
  40399c:	4c 39 fa             	cmp    %r15,%rdx
  40399f:	0f 82 2d 02 00 00    	jb     403bd2 <__libm_error_support+0x412>
  4039a5:	31 c0                	xor    %eax,%eax
  4039a7:	66 0f 1f 84 00 00 00 	nopw   0x0(%rax,%rax,1)
  4039ae:	00 00 
  4039b0:	41 0f b7 14 47       	movzwl (%r15,%rax,2),%edx
  4039b5:	66 89 14 43          	mov    %dx,(%rbx,%rax,2)
  4039b9:	48 ff c0             	inc    %rax
  4039bc:	48 39 c1             	cmp    %rax,%rcx
  4039bf:	75 ef                	jne    4039b0 <__libm_error_support+0x1f0>
  4039c1:	e9 6a ff ff ff       	jmpq   403930 <__libm_error_support+0x170>
  4039c6:	48 89 d8             	mov    %rbx,%rax
  4039c9:	48 89 5c 24 20       	mov    %rbx,0x20(%rsp)
  4039ce:	e9 5d ff ff ff       	jmpq   403930 <__libm_error_support+0x170>
  4039d3:	49 63 40 10          	movslq 0x10(%r8),%rax
  4039d7:	48 8b 4c 24 20       	mov    0x20(%rsp),%rcx
  4039dc:	0f b7 04 41          	movzwl (%rcx,%rax,2),%eax
  4039e0:	c1 e8 0f             	shr    $0xf,%eax
  4039e3:	8b 4c 24 0c          	mov    0xc(%rsp),%ecx
  4039e7:	09 c1                	or     %eax,%ecx
  4039e9:	89 4c 24 0c          	mov    %ecx,0xc(%rsp)
  4039ed:	31 4c 24 14          	xor    %ecx,0x14(%rsp)
  4039f1:	e9 3a ff ff ff       	jmpq   403930 <__libm_error_support+0x170>
  4039f6:	41 0f be 40 08       	movsbl 0x8(%r8),%eax
  4039fb:	8b 4c 24 14          	mov    0x14(%rsp),%ecx
  4039ff:	0f af c8             	imul   %eax,%ecx
  403a02:	49 0f be 50 0a       	movsbq 0xa(%r8),%rdx
  403a07:	66 83 7c 24 38 03    	cmpw   $0x3,0x38(%rsp)
  403a0d:	75 34                	jne    403a43 <__libm_error_support+0x283>
  403a0f:	48 89 c6             	mov    %rax,%rsi
  403a12:	48 c1 ee 03          	shr    $0x3,%rsi
  403a16:	48 63 f9             	movslq %ecx,%rdi
  403a19:	48 01 d7             	add    %rdx,%rdi
  403a1c:	48 8d 2d 6d 55 00 00 	lea    0x556d(%rip),%rbp        # 408f90 <__libm_key_value>
  403a23:	48 8d 3c 7d 00 00 00 	lea    0x0(,%rdi,2),%rdi
  403a2a:	00 
  403a2b:	48 01 ef             	add    %rbp,%rdi
  403a2e:	31 ed                	xor    %ebp,%ebp
  403a30:	f3 0f 6f 04 2f       	movdqu (%rdi,%rbp,1),%xmm0
  403a35:	f3 0f 7f 04 2b       	movdqu %xmm0,(%rbx,%rbp,1)
  403a3a:	48 83 c5 10          	add    $0x10,%rbp
  403a3e:	48 ff ce             	dec    %rsi
  403a41:	75 ed                	jne    403a30 <__libm_error_support+0x270>
  403a43:	89 c6                	mov    %eax,%esi
  403a45:	83 e6 07             	and    $0x7,%esi
  403a48:	48 ff ce             	dec    %rsi
  403a4b:	48 83 fe 06          	cmp    $0x6,%rsi
  403a4f:	0f 87 db fe ff ff    	ja     403930 <__libm_error_support+0x170>
  403a55:	83 e0 f8             	and    $0xfffffff8,%eax
  403a58:	48 8d 3d 59 54 00 00 	lea    0x5459(%rip),%rdi        # 408eb8 <__libm_double_rcp_table_256+0x888>
  403a5f:	48 63 34 b7          	movslq (%rdi,%rsi,4),%rsi
  403a63:	48 01 fe             	add    %rdi,%rsi
  403a66:	3e ff e6             	notrack jmpq *%rsi
  403a69:	48 63 c9             	movslq %ecx,%rcx
  403a6c:	48 01 d1             	add    %rdx,%rcx
  403a6f:	48 01 c1             	add    %rax,%rcx
  403a72:	48 8d 35 17 55 00 00 	lea    0x5517(%rip),%rsi        # 408f90 <__libm_key_value>
  403a79:	e9 5f 03 00 00       	jmpq   403ddd <__libm_error_support+0x61d>
  403a7e:	48 8b 03             	mov    (%rbx),%rax
  403a81:	41 8a 48 0c          	mov    0xc(%r8),%cl
  403a85:	48 d3 e0             	shl    %cl,%rax
  403a88:	48 83 e5 f0          	and    $0xfffffffffffffff0,%rbp
  403a8c:	48 83 cd 01          	or     $0x1,%rbp
  403a90:	48 85 c0             	test   %rax,%rax
  403a93:	4c 0f 44 e5          	cmove  %rbp,%r12
  403a97:	8b 44 24 10          	mov    0x10(%rsp),%eax
  403a9b:	b9 00 00 00 00       	mov    $0x0,%ecx
  403aa0:	0f 44 c1             	cmove  %ecx,%eax
  403aa3:	89 44 24 10          	mov    %eax,0x10(%rsp)
  403aa7:	e9 84 fe ff ff       	jmpq   403930 <__libm_error_support+0x170>
  403aac:	41 8b 40 08          	mov    0x8(%r8),%eax
  403ab0:	3c 02                	cmp    $0x2,%al
  403ab2:	b9 01 00 00 00       	mov    $0x1,%ecx
  403ab7:	0f 4c c1             	cmovl  %ecx,%eax
  403aba:	0f b6 c8             	movzbl %al,%ecx
  403abd:	3c 08                	cmp    $0x8,%al
  403abf:	0f 83 b6 01 00 00    	jae    403c7b <__libm_error_support+0x4bb>
  403ac5:	31 c0                	xor    %eax,%eax
  403ac7:	e9 f6 01 00 00       	jmpq   403cc2 <__libm_error_support+0x502>
  403acc:	4c 89 f8             	mov    %r15,%rax
  403acf:	4c 89 7c 24 20       	mov    %r15,0x20(%rsp)
  403ad4:	e9 57 fe ff ff       	jmpq   403930 <__libm_error_support+0x170>
  403ad9:	48 8b 44 24 30       	mov    0x30(%rsp),%rax
  403ade:	48 8d 0d eb 9a 00 00 	lea    0x9aeb(%rip),%rcx        # 40d5d0 <__libm_func_names>
  403ae5:	4c 8b 0c c1          	mov    (%rcx,%rax,8),%r9
  403ae9:	49 8b 00             	mov    (%r8),%rax
  403aec:	48 89 04 24          	mov    %rax,(%rsp)
  403af0:	be 14 00 00 00       	mov    $0x14,%esi
  403af5:	b9 14 00 00 00       	mov    $0x14,%ecx
  403afa:	4c 8d ac 24 b0 00 00 	lea    0xb0(%rsp),%r13
  403b01:	00 
  403b02:	4c 89 ef             	mov    %r13,%rdi
  403b05:	ba 01 00 00 00       	mov    $0x1,%edx
  403b0a:	4c 8d 05 7e 5d 00 00 	lea    0x5d7e(%rip),%r8        # 40988f <__libm_err_response_table+0xcf>
  403b11:	31 c0                	xor    %eax,%eax
  403b13:	e8 e8 e5 ff ff       	callq  402100 <__snprintf_chk@plt>
  403b18:	48 8b 74 24 18       	mov    0x18(%rsp),%rsi
  403b1d:	48 8b 44 24 48       	mov    0x48(%rsp),%rax
  403b22:	89 44 24 70          	mov    %eax,0x70(%rsp)
  403b26:	4c 89 6c 24 78       	mov    %r13,0x78(%rsp)
  403b2b:	48 0f be 46 08       	movsbq 0x8(%rsi),%rax
  403b30:	89 c0                	mov    %eax,%eax
  403b32:	31 c9                	xor    %ecx,%ecx
  403b34:	66 66 66 2e 0f 1f 84 	data16 data16 nopw %cs:0x0(%rax,%rax,1)
  403b3b:	00 00 00 00 00 
  403b40:	41 0f b7 14 4f       	movzwl (%r15,%rcx,2),%edx
  403b45:	66 89 94 4c 80 00 00 	mov    %dx,0x80(%rsp,%rcx,2)
  403b4c:	00 
  403b4d:	48 ff c1             	inc    %rcx
  403b50:	48 39 c8             	cmp    %rcx,%rax
  403b53:	75 eb                	jne    403b40 <__libm_error_support+0x380>
  403b55:	48 0f be 4e 09       	movsbq 0x9(%rsi),%rcx
  403b5a:	48 8d 94 24 80 00 00 	lea    0x80(%rsp),%rdx
  403b61:	00 
  403b62:	48 8d 14 4a          	lea    (%rdx,%rcx,2),%rdx
  403b66:	31 f6                	xor    %esi,%esi
  403b68:	0f 1f 84 00 00 00 00 	nopl   0x0(%rax,%rax,1)
  403b6f:	00 
  403b70:	41 0f b7 3c 76       	movzwl (%r14,%rsi,2),%edi
  403b75:	66 89 3c 72          	mov    %di,(%rdx,%rsi,2)
  403b79:	48 ff c6             	inc    %rsi
  403b7c:	48 39 f0             	cmp    %rsi,%rax
  403b7f:	75 ef                	jne    403b70 <__libm_error_support+0x3b0>
  403b81:	48 8d 94 24 80 00 00 	lea    0x80(%rsp),%rdx
  403b88:	00 
  403b89:	48 8d 0c 8a          	lea    (%rdx,%rcx,4),%rcx
  403b8d:	31 d2                	xor    %edx,%edx
  403b8f:	4c 8d 2d b6 52 00 00 	lea    0x52b6(%rip),%r13        # 408e4c <__libm_double_rcp_table_256+0x81c>
  403b96:	66 2e 0f 1f 84 00 00 	nopw   %cs:0x0(%rax,%rax,1)
  403b9d:	00 00 00 
  403ba0:	0f b7 34 53          	movzwl (%rbx,%rdx,2),%esi
  403ba4:	66 89 34 51          	mov    %si,(%rcx,%rdx,2)
  403ba8:	48 ff c2             	inc    %rdx
  403bab:	48 39 d0             	cmp    %rdx,%rax
  403bae:	75 f0                	jne    403ba0 <__libm_error_support+0x3e0>
  403bb0:	48 8d 7c 24 70       	lea    0x70(%rsp),%rdi
  403bb5:	48 8b 44 24 38       	mov    0x38(%rsp),%rax
  403bba:	ff 54 c4 50          	callq  *0x50(%rsp,%rax,8)
  403bbe:	48 83 e5 f0          	and    $0xfffffffffffffff0,%rbp
  403bc2:	85 c0                	test   %eax,%eax
  403bc4:	4c 0f 45 e5          	cmovne %rbp,%r12
  403bc8:	4c 8b 44 24 18       	mov    0x18(%rsp),%r8
  403bcd:	e9 5e fd ff ff       	jmpq   403930 <__libm_error_support+0x170>
  403bd2:	83 f9 08             	cmp    $0x8,%ecx
  403bd5:	72 2d                	jb     403c04 <__libm_error_support+0x444>
  403bd7:	48 8d 14 09          	lea    (%rcx,%rcx,1),%rdx
  403bdb:	48 83 e2 f0          	and    $0xfffffffffffffff0,%rdx
  403bdf:	31 f6                	xor    %esi,%esi
  403be1:	66 66 66 66 66 66 2e 	data16 data16 data16 data16 data16 nopw %cs:0x0(%rax,%rax,1)
  403be8:	0f 1f 84 00 00 00 00 
  403bef:	00 
  403bf0:	f3 41 0f 6f 04 37    	movdqu (%r15,%rsi,1),%xmm0
  403bf6:	f3 0f 7f 04 33       	movdqu %xmm0,(%rbx,%rsi,1)
  403bfb:	48 83 c6 10          	add    $0x10,%rsi
  403bff:	48 39 f2             	cmp    %rsi,%rdx
  403c02:	75 ec                	jne    403bf0 <__libm_error_support+0x430>
  403c04:	83 e0 f8             	and    $0xfffffff8,%eax
  403c07:	48 89 c2             	mov    %rax,%rdx
  403c0a:	48 f7 d2             	not    %rdx
  403c0d:	48 01 d1             	add    %rdx,%rcx
  403c10:	48 83 f9 06          	cmp    $0x6,%rcx
  403c14:	0f 87 16 fd ff ff    	ja     403930 <__libm_error_support+0x170>
  403c1a:	48 8d 15 7b 52 00 00 	lea    0x527b(%rip),%rdx        # 408e9c <__libm_double_rcp_table_256+0x86c>
  403c21:	48 63 0c 8a          	movslq (%rdx,%rcx,4),%rcx
  403c25:	48 01 d1             	add    %rdx,%rcx
  403c28:	3e ff e1             	notrack jmpq *%rcx
  403c2b:	41 0f b7 4c 47 0c    	movzwl 0xc(%r15,%rax,2),%ecx
  403c31:	66 89 4c 43 0c       	mov    %cx,0xc(%rbx,%rax,2)
  403c36:	41 0f b7 4c 47 0a    	movzwl 0xa(%r15,%rax,2),%ecx
  403c3c:	66 89 4c 43 0a       	mov    %cx,0xa(%rbx,%rax,2)
  403c41:	41 0f b7 4c 47 08    	movzwl 0x8(%r15,%rax,2),%ecx
  403c47:	66 89 4c 43 08       	mov    %cx,0x8(%rbx,%rax,2)
  403c4c:	41 0f b7 4c 47 06    	movzwl 0x6(%r15,%rax,2),%ecx
  403c52:	66 89 4c 43 06       	mov    %cx,0x6(%rbx,%rax,2)
  403c57:	41 0f b7 4c 47 04    	movzwl 0x4(%r15,%rax,2),%ecx
  403c5d:	66 89 4c 43 04       	mov    %cx,0x4(%rbx,%rax,2)
  403c62:	41 0f b7 4c 47 02    	movzwl 0x2(%r15,%rax,2),%ecx
  403c68:	66 89 4c 43 02       	mov    %cx,0x2(%rbx,%rax,2)
  403c6d:	41 0f b7 0c 47       	movzwl (%r15,%rax,2),%ecx
  403c72:	66 89 0c 43          	mov    %cx,(%rbx,%rax,2)
  403c76:	e9 b5 fc ff ff       	jmpq   403930 <__libm_error_support+0x170>
  403c7b:	48 89 ca             	mov    %rcx,%rdx
  403c7e:	48 c1 ea 03          	shr    $0x3,%rdx
  403c82:	31 c0                	xor    %eax,%eax
  403c84:	4c 89 fe             	mov    %r15,%rsi
  403c87:	66 0f 1f 84 00 00 00 	nopw   0x0(%rax,%rax,1)
  403c8e:	00 00 
  403c90:	f3 0f 6f 06          	movdqu (%rsi),%xmm0
  403c94:	66 0f 70 c8 ee       	pshufd $0xee,%xmm0,%xmm1
  403c99:	66 0f eb c8          	por    %xmm0,%xmm1
  403c9d:	66 0f 70 c1 55       	pshufd $0x55,%xmm1,%xmm0
  403ca2:	66 0f eb c1          	por    %xmm1,%xmm0
  403ca6:	66 0f 6f c8          	movdqa %xmm0,%xmm1
  403caa:	66 0f 72 d1 10       	psrld  $0x10,%xmm1
  403caf:	66 0f eb c8          	por    %xmm0,%xmm1
  403cb3:	66 0f 7e cf          	movd   %xmm1,%edi
  403cb7:	09 f8                	or     %edi,%eax
  403cb9:	48 83 c6 10          	add    $0x10,%rsi
  403cbd:	48 ff ca             	dec    %rdx
  403cc0:	75 ce                	jne    403c90 <__libm_error_support+0x4d0>
  403cc2:	89 ca                	mov    %ecx,%edx
  403cc4:	83 e2 07             	and    $0x7,%edx
  403cc7:	48 ff ca             	dec    %rdx
  403cca:	48 83 fa 06          	cmp    $0x6,%rdx
  403cce:	77 3d                	ja     403d0d <__libm_error_support+0x54d>
  403cd0:	83 e1 78             	and    $0x78,%ecx
  403cd3:	48 8d 35 a6 51 00 00 	lea    0x51a6(%rip),%rsi        # 408e80 <__libm_double_rcp_table_256+0x850>
  403cda:	48 63 14 96          	movslq (%rsi,%rdx,4),%rdx
  403cde:	48 01 f2             	add    %rsi,%rdx
  403ce1:	3e ff e2             	notrack jmpq *%rdx
  403ce4:	66 41 0b 44 4f 0c    	or     0xc(%r15,%rcx,2),%ax
  403cea:	66 41 0b 44 4f 0a    	or     0xa(%r15,%rcx,2),%ax
  403cf0:	66 41 0b 44 4f 08    	or     0x8(%r15,%rcx,2),%ax
  403cf6:	66 41 0b 44 4f 06    	or     0x6(%r15,%rcx,2),%ax
  403cfc:	66 41 0b 44 4f 04    	or     0x4(%r15,%rcx,2),%ax
  403d02:	66 41 0b 44 4f 02    	or     0x2(%r15,%rcx,2),%ax
  403d08:	66 41 0b 04 4f       	or     (%r15,%rcx,2),%ax
  403d0d:	8b 4c 24 0c          	mov    0xc(%rsp),%ecx
  403d11:	66 85 c0             	test   %ax,%ax
  403d14:	b8 01 00 00 00       	mov    $0x1,%eax
  403d19:	0f 44 c8             	cmove  %eax,%ecx
  403d1c:	89 4c 24 0c          	mov    %ecx,0xc(%rsp)
  403d20:	48 83 e5 f0          	and    $0xfffffffffffffff0,%rbp
  403d24:	48 c1 e5 08          	shl    $0x8,%rbp
  403d28:	48 81 cd 75 03 00 00 	or     $0x375,%rbp
  403d2f:	49 89 ec             	mov    %rbp,%r12
  403d32:	e9 f9 fb ff ff       	jmpq   403930 <__libm_error_support+0x170>
  403d37:	48 63 c9             	movslq %ecx,%rcx
  403d3a:	48 01 d1             	add    %rdx,%rcx
  403d3d:	48 01 c1             	add    %rax,%rcx
  403d40:	48 8d 35 49 52 00 00 	lea    0x5249(%rip),%rsi        # 408f90 <__libm_key_value>
  403d47:	eb 6c                	jmp    403db5 <__libm_error_support+0x5f5>
  403d49:	48 63 c9             	movslq %ecx,%rcx
  403d4c:	48 01 d1             	add    %rdx,%rcx
  403d4f:	48 01 c1             	add    %rax,%rcx
  403d52:	48 8d 35 37 52 00 00 	lea    0x5237(%rip),%rsi        # 408f90 <__libm_key_value>
  403d59:	eb 6e                	jmp    403dc9 <__libm_error_support+0x609>
  403d5b:	48 63 c9             	movslq %ecx,%rcx
  403d5e:	48 01 d1             	add    %rdx,%rcx
  403d61:	48 01 c1             	add    %rax,%rcx
  403d64:	48 8d 35 25 52 00 00 	lea    0x5225(%rip),%rsi        # 408f90 <__libm_key_value>
  403d6b:	eb 52                	jmp    403dbf <__libm_error_support+0x5ff>
  403d6d:	48 63 c9             	movslq %ecx,%rcx
  403d70:	48 01 d1             	add    %rdx,%rcx
  403d73:	48 01 c1             	add    %rax,%rcx
  403d76:	48 8d 35 13 52 00 00 	lea    0x5213(%rip),%rsi        # 408f90 <__libm_key_value>
  403d7d:	eb 54                	jmp    403dd3 <__libm_error_support+0x613>
  403d7f:	48 63 c9             	movslq %ecx,%rcx
  403d82:	48 01 d1             	add    %rdx,%rcx
  403d85:	48 01 c1             	add    %rax,%rcx
  403d88:	48 8d 35 01 52 00 00 	lea    0x5201(%rip),%rsi        # 408f90 <__libm_key_value>
  403d8f:	eb 1a                	jmp    403dab <__libm_error_support+0x5eb>
  403d91:	48 63 c9             	movslq %ecx,%rcx
  403d94:	48 01 d1             	add    %rdx,%rcx
  403d97:	48 01 c1             	add    %rax,%rcx
  403d9a:	48 8d 35 ef 51 00 00 	lea    0x51ef(%rip),%rsi        # 408f90 <__libm_key_value>
  403da1:	0f b7 54 4e 0c       	movzwl 0xc(%rsi,%rcx,2),%edx
  403da6:	66 89 54 43 0c       	mov    %dx,0xc(%rbx,%rax,2)
  403dab:	0f b7 54 4e 0a       	movzwl 0xa(%rsi,%rcx,2),%edx
  403db0:	66 89 54 43 0a       	mov    %dx,0xa(%rbx,%rax,2)
  403db5:	0f b7 54 4e 08       	movzwl 0x8(%rsi,%rcx,2),%edx
  403dba:	66 89 54 43 08       	mov    %dx,0x8(%rbx,%rax,2)
  403dbf:	0f b7 54 4e 06       	movzwl 0x6(%rsi,%rcx,2),%edx
  403dc4:	66 89 54 43 06       	mov    %dx,0x6(%rbx,%rax,2)
  403dc9:	0f b7 54 4e 04       	movzwl 0x4(%rsi,%rcx,2),%edx
  403dce:	66 89 54 43 04       	mov    %dx,0x4(%rbx,%rax,2)
  403dd3:	0f b7 54 4e 02       	movzwl 0x2(%rsi,%rcx,2),%edx
  403dd8:	66 89 54 43 02       	mov    %dx,0x2(%rbx,%rax,2)
  403ddd:	0f b7 0c 4e          	movzwl (%rsi,%rcx,2),%ecx
  403de1:	66 89 0c 43          	mov    %cx,(%rbx,%rax,2)
  403de5:	e9 46 fb ff ff       	jmpq   403930 <__libm_error_support+0x170>
  403dea:	64 48 8b 04 25 28 00 	mov    %fs:0x28,%rax
  403df1:	00 00 
  403df3:	48 3b 84 24 d0 00 00 	cmp    0xd0(%rsp),%rax
  403dfa:	00 
  403dfb:	75 12                	jne    403e0f <__libm_error_support+0x64f>
  403dfd:	48 81 c4 d8 00 00 00 	add    $0xd8,%rsp
  403e04:	5b                   	pop    %rbx
  403e05:	41 5c                	pop    %r12
  403e07:	41 5d                	pop    %r13
  403e09:	41 5e                	pop    %r14
  403e0b:	41 5f                	pop    %r15
  403e0d:	5d                   	pop    %rbp
  403e0e:	c3                   	retq   
  403e0f:	e8 8c e3 ff ff       	callq  4021a0 <__stack_chk_fail@plt>
  403e14:	66 66 66 2e 0f 1f 84 	data16 data16 nopw %cs:0x0(%rax,%rax,1)
  403e1b:	00 00 00 00 00 

0000000000403e20 <write_message>:
  403e20:	55                   	push   %rbp
  403e21:	41 56                	push   %r14
  403e23:	53                   	push   %rbx
  403e24:	48 81 ec e0 02 00 00 	sub    $0x2e0,%rsp
  403e2b:	48 89 74 24 28       	mov    %rsi,0x28(%rsp)
  403e30:	48 89 54 24 30       	mov    %rdx,0x30(%rsp)
  403e35:	48 89 4c 24 38       	mov    %rcx,0x38(%rsp)
  403e3a:	4c 89 44 24 40       	mov    %r8,0x40(%rsp)
  403e3f:	4c 89 4c 24 48       	mov    %r9,0x48(%rsp)
  403e44:	84 c0                	test   %al,%al
  403e46:	74 37                	je     403e7f <write_message+0x5f>
  403e48:	0f 29 44 24 50       	movaps %xmm0,0x50(%rsp)
  403e4d:	0f 29 4c 24 60       	movaps %xmm1,0x60(%rsp)
  403e52:	0f 29 54 24 70       	movaps %xmm2,0x70(%rsp)
  403e57:	0f 29 9c 24 80 00 00 	movaps %xmm3,0x80(%rsp)
  403e5e:	00 
  403e5f:	0f 29 a4 24 90 00 00 	movaps %xmm4,0x90(%rsp)
  403e66:	00 
  403e67:	0f 29 ac 24 a0 00 00 	movaps %xmm5,0xa0(%rsp)
  403e6e:	00 
  403e6f:	0f 29 b4 24 b0 00 00 	movaps %xmm6,0xb0(%rsp)
  403e76:	00 
  403e77:	0f 29 bc 24 c0 00 00 	movaps %xmm7,0xc0(%rsp)
  403e7e:	00 
  403e7f:	64 48 8b 04 25 28 00 	mov    %fs:0x28,%rax
  403e86:	00 00 
  403e88:	48 89 84 24 d8 02 00 	mov    %rax,0x2d8(%rsp)
  403e8f:	00 
  403e90:	89 f8                	mov    %edi,%eax
  403e92:	48 8d 0d f7 9a 00 00 	lea    0x9af7(%rip),%rcx        # 40d990 <__libm_message_table>
  403e99:	48 8b 1c c1          	mov    (%rcx,%rax,8),%rbx
  403e9d:	80 3d 5c a5 00 00 00 	cmpb   $0x0,0xa55c(%rip)        # 40e400 <use_message_catalog>
  403ea4:	75 42                	jne    403ee8 <write_message+0xc8>
  403ea6:	89 fd                	mov    %edi,%ebp
  403ea8:	48 8b 3d 59 a5 00 00 	mov    0xa559(%rip),%rdi        # 40e408 <message_catalog>
  403eaf:	48 85 ff             	test   %rdi,%rdi
  403eb2:	75 22                	jne    403ed6 <write_message+0xb6>
  403eb4:	48 8d 3d 56 5a 00 00 	lea    0x5a56(%rip),%rdi        # 409911 <__libm_err_response_table+0x151>
  403ebb:	31 f6                	xor    %esi,%esi
  403ebd:	e8 fe e1 ff ff       	callq  4020c0 <catopen@plt>
  403ec2:	48 89 c7             	mov    %rax,%rdi
  403ec5:	48 89 05 3c a5 00 00 	mov    %rax,0xa53c(%rip)        # 40e408 <message_catalog>
  403ecc:	48 83 f8 ff          	cmp    $0xffffffffffffffff,%rax
  403ed0:	0f 84 91 00 00 00    	je     403f67 <write_message+0x147>
  403ed6:	be 01 00 00 00       	mov    $0x1,%esi
  403edb:	89 ea                	mov    %ebp,%edx
  403edd:	48 89 d9             	mov    %rbx,%rcx
  403ee0:	e8 ab e2 ff ff       	callq  402190 <catgets@plt>
  403ee5:	48 89 c3             	mov    %rax,%rbx
  403ee8:	48 8d 44 24 20       	lea    0x20(%rsp),%rax
  403eed:	48 89 44 24 10       	mov    %rax,0x10(%rsp)
  403ef2:	48 8d 84 24 00 03 00 	lea    0x300(%rsp),%rax
  403ef9:	00 
  403efa:	48 89 44 24 08       	mov    %rax,0x8(%rsp)
  403eff:	48 b8 08 00 00 00 30 	movabs $0x3000000008,%rax
  403f06:	00 00 00 
  403f09:	48 89 04 24          	mov    %rax,(%rsp)
  403f0d:	48 8d ac 24 d0 00 00 	lea    0xd0(%rsp),%rbp
  403f14:	00 
  403f15:	49 89 e1             	mov    %rsp,%r9
  403f18:	be 00 02 00 00       	mov    $0x200,%esi
  403f1d:	b9 00 02 00 00       	mov    $0x200,%ecx
  403f22:	48 89 ef             	mov    %rbp,%rdi
  403f25:	ba 01 00 00 00       	mov    $0x1,%edx
  403f2a:	49 89 d8             	mov    %rbx,%r8
  403f2d:	e8 ee e1 ff ff       	callq  402120 <__vsnprintf_chk@plt>
  403f32:	48 8b 05 97 a0 00 00 	mov    0xa097(%rip),%rax        # 40dfd0 <stderr@GLIBC_2.2.5>
  403f39:	48 8b 30             	mov    (%rax),%rsi
  403f3c:	48 89 ef             	mov    %rbp,%rdi
  403f3f:	e8 6c e2 ff ff       	callq  4021b0 <fputs@plt>
  403f44:	64 48 8b 04 25 28 00 	mov    %fs:0x28,%rax
  403f4b:	00 00 
  403f4d:	48 3b 84 24 d8 02 00 	cmp    0x2d8(%rsp),%rax
  403f54:	00 
  403f55:	0f 85 ed 00 00 00    	jne    404048 <write_message+0x228>
  403f5b:	48 81 c4 e0 02 00 00 	add    $0x2e0,%rsp
  403f62:	5b                   	pop    %rbx
  403f63:	41 5e                	pop    %r14
  403f65:	5d                   	pop    %rbp
  403f66:	c3                   	retq   
  403f67:	48 8d 3d ac 59 00 00 	lea    0x59ac(%rip),%rdi        # 40991a <__libm_err_response_table+0x15a>
  403f6e:	e8 5d e2 ff ff       	callq  4021d0 <getenv@plt>
  403f73:	4c 8d b4 24 d0 00 00 	lea    0xd0(%rsp),%r14
  403f7a:	00 
  403f7b:	ba 00 02 00 00       	mov    $0x200,%edx
  403f80:	b9 00 02 00 00       	mov    $0x200,%ecx
  403f85:	4c 89 f7             	mov    %r14,%rdi
  403f88:	48 89 c6             	mov    %rax,%rsi
  403f8b:	e8 60 e1 ff ff       	callq  4020f0 <__strncpy_chk@plt>
  403f90:	4c 89 f7             	mov    %r14,%rdi
  403f93:	be 2e 00 00 00       	mov    $0x2e,%esi
  403f98:	e8 e3 e0 ff ff       	callq  402080 <strchr@plt>
  403f9d:	48 85 c0             	test   %rax,%rax
  403fa0:	0f 84 96 00 00 00    	je     40403c <write_message+0x21c>
  403fa6:	c6 00 00             	movb   $0x0,(%rax)
  403fa9:	48 8d 3d 6a 59 00 00 	lea    0x596a(%rip),%rdi        # 40991a <__libm_err_response_table+0x15a>
  403fb0:	48 8d b4 24 d0 00 00 	lea    0xd0(%rsp),%rsi
  403fb7:	00 
  403fb8:	ba 01 00 00 00       	mov    $0x1,%edx
  403fbd:	e8 3e e2 ff ff       	callq  402200 <setenv@plt>
  403fc2:	48 8d 3d 48 59 00 00 	lea    0x5948(%rip),%rdi        # 409911 <__libm_err_response_table+0x151>
  403fc9:	31 f6                	xor    %esi,%esi
  403fcb:	e8 f0 e0 ff ff       	callq  4020c0 <catopen@plt>
  403fd0:	48 89 c7             	mov    %rax,%rdi
  403fd3:	48 89 05 2e a4 00 00 	mov    %rax,0xa42e(%rip)        # 40e408 <message_catalog>
  403fda:	48 83 f8 ff          	cmp    $0xffffffffffffffff,%rax
  403fde:	0f 85 f2 fe ff ff    	jne    403ed6 <write_message+0xb6>
  403fe4:	4c 8d 05 34 59 00 00 	lea    0x5934(%rip),%r8        # 40991f <__libm_err_response_table+0x15f>
  403feb:	4c 8d 0d 1f 59 00 00 	lea    0x591f(%rip),%r9        # 409911 <__libm_err_response_table+0x151>
  403ff2:	48 8d ac 24 d0 00 00 	lea    0xd0(%rsp),%rbp
  403ff9:	00 
  403ffa:	be 00 02 00 00       	mov    $0x200,%esi
  403fff:	b9 00 02 00 00       	mov    $0x200,%ecx
  404004:	48 89 ef             	mov    %rbp,%rdi
  404007:	ba 01 00 00 00       	mov    $0x1,%edx
  40400c:	31 c0                	xor    %eax,%eax
  40400e:	e8 ed e0 ff ff       	callq  402100 <__snprintf_chk@plt>
  404013:	48 8b 05 b6 9f 00 00 	mov    0x9fb6(%rip),%rax        # 40dfd0 <stderr@GLIBC_2.2.5>
  40401a:	48 8b 30             	mov    (%rax),%rsi
  40401d:	48 89 ef             	mov    %rbp,%rdi
  404020:	e8 8b e1 ff ff       	callq  4021b0 <fputs@plt>
  404025:	48 c7 05 d8 a3 00 00 	movq   $0x0,0xa3d8(%rip)        # 40e408 <message_catalog>
  40402c:	00 00 00 00 
  404030:	c6 05 c9 a3 00 00 01 	movb   $0x1,0xa3c9(%rip)        # 40e400 <use_message_catalog>
  404037:	e9 ac fe ff ff       	jmpq   403ee8 <write_message+0xc8>
  40403c:	48 8b 3d c5 a3 00 00 	mov    0xa3c5(%rip),%rdi        # 40e408 <message_catalog>
  404043:	e9 8e fe ff ff       	jmpq   403ed6 <write_message+0xb6>
  404048:	e8 53 e1 ff ff       	callq  4021a0 <__stack_chk_fail@plt>
  40404d:	0f 1f 00             	nopl   (%rax)

0000000000404050 <__libm_error_support_wrapper_x64f>:
  404050:	f3 0f 1e fa          	endbr64 
  404054:	48 83 ec 18          	sub    $0x18,%rsp
  404058:	f3 0f 11 44 24 0c    	movss  %xmm0,0xc(%rsp)
  40405e:	f3 0f 11 4c 24 14    	movss  %xmm1,0x14(%rsp)
  404064:	f3 0f 11 54 24 10    	movss  %xmm2,0x10(%rsp)
  40406a:	66 0f 7e d9          	movd   %xmm3,%ecx
  40406e:	48 8d 7c 24 14       	lea    0x14(%rsp),%rdi
  404073:	48 8d 74 24 10       	lea    0x10(%rsp),%rsi
  404078:	48 8d 54 24 0c       	lea    0xc(%rsp),%rdx
  40407d:	e8 3e f7 ff ff       	callq  4037c0 <__libm_error_support>
  404082:	f3 0f 10 44 24 0c    	movss  0xc(%rsp),%xmm0
  404088:	48 83 c4 18          	add    $0x18,%rsp
  40408c:	c3                   	retq   
  40408d:	0f 1f 00             	nopl   (%rax)

0000000000404090 <__libm_error_support_wrapper_x64>:
  404090:	f3 0f 1e fa          	endbr64 
  404094:	48 83 ec 18          	sub    $0x18,%rsp
  404098:	f2 0f 11 04 24       	movsd  %xmm0,(%rsp)
  40409d:	f2 0f 11 4c 24 10    	movsd  %xmm1,0x10(%rsp)
  4040a3:	f2 0f 11 54 24 08    	movsd  %xmm2,0x8(%rsp)
  4040a9:	66 48 0f 7e d9       	movq   %xmm3,%rcx
  4040ae:	48 8d 7c 24 10       	lea    0x10(%rsp),%rdi
  4040b3:	48 8d 74 24 08       	lea    0x8(%rsp),%rsi
  4040b8:	48 89 e2             	mov    %rsp,%rdx
  4040bb:	e8 00 f7 ff ff       	callq  4037c0 <__libm_error_support>
  4040c0:	f2 0f 10 04 24       	movsd  (%rsp),%xmm0
  4040c5:	48 83 c4 18          	add    $0x18,%rsp
  4040c9:	c3                   	retq   
  4040ca:	66 0f 1f 44 00 00    	nopw   0x0(%rax,%rax,1)

00000000004040d0 <__libm_matherr>:
  4040d0:	f3 0f 1e fa          	endbr64 
  4040d4:	e9 27 00 00 00       	jmpq   404100 <__libm_matherr_ex>
  4040d9:	0f 1f 80 00 00 00 00 	nopl   0x0(%rax)

00000000004040e0 <__libm_matherrf>:
  4040e0:	f3 0f 1e fa          	endbr64 
  4040e4:	e9 27 00 00 00       	jmpq   404110 <__libm_matherrf_ex>
  4040e9:	0f 1f 80 00 00 00 00 	nopl   0x0(%rax)

00000000004040f0 <__libm_matherrl>:
  4040f0:	f3 0f 1e fa          	endbr64 
  4040f4:	e9 27 00 00 00       	jmpq   404120 <__libm_matherrl_ex>
  4040f9:	0f 1f 80 00 00 00 00 	nopl   0x0(%rax)

0000000000404100 <__libm_matherr_ex>:
  404100:	f3 0f 1e fa          	endbr64 
  404104:	b8 01 00 00 00       	mov    $0x1,%eax
  404109:	c3                   	retq   
  40410a:	66 0f 1f 44 00 00    	nopw   0x0(%rax,%rax,1)

0000000000404110 <__libm_matherrf_ex>:
  404110:	f3 0f 1e fa          	endbr64 
  404114:	b8 01 00 00 00       	mov    $0x1,%eax
  404119:	c3                   	retq   
  40411a:	66 0f 1f 44 00 00    	nopw   0x0(%rax,%rax,1)

0000000000404120 <__libm_matherrl_ex>:
  404120:	f3 0f 1e fa          	endbr64 
  404124:	b8 01 00 00 00       	mov    $0x1,%eax
  404129:	c3                   	retq   
  40412a:	66 0f 1f 44 00 00    	nopw   0x0(%rax,%rax,1)

0000000000404130 <__intel_new_feature_proc_init_n>:
  404130:	f3 0f 1e fa          	endbr64 
  404134:	55                   	push   %rbp
  404135:	41 57                	push   %r15
  404137:	41 56                	push   %r14
  404139:	41 55                	push   %r13
  40413b:	41 54                	push   %r12
  40413d:	53                   	push   %rbx
  40413e:	48 81 ec 38 04 00 00 	sub    $0x438,%rsp
  404145:	64 48 8b 04 25 28 00 	mov    %fs:0x28,%rax
  40414c:	00 00 
  40414e:	48 89 84 24 30 04 00 	mov    %rax,0x430(%rsp)
  404155:	00 
  404156:	0f 57 c0             	xorps  %xmm0,%xmm0
  404159:	0f 29 44 24 10       	movaps %xmm0,0x10(%rsp)
  40415e:	48 c7 c1 10 e4 40 00 	mov    $0x40e410,%rcx
  404165:	48 83 39 00          	cmpq   $0x0,(%rcx)
  404169:	75 17                	jne    404182 <__intel_new_feature_proc_init_n+0x52>
  40416b:	e8 30 04 00 00       	callq  4045a0 <__intel_cpu_features_init>
  404170:	85 c0                	test   %eax,%eax
  404172:	0f 85 17 02 00 00    	jne    40438f <__intel_new_feature_proc_init_n+0x25f>
  404178:	48 83 39 00          	cmpq   $0x0,(%rcx)
  40417c:	0f 84 0d 02 00 00    	je     40438f <__intel_new_feature_proc_init_n+0x25f>
  404182:	83 ff 02             	cmp    $0x2,%edi
  404185:	0f 8d b2 01 00 00    	jge    40433d <__intel_new_feature_proc_init_n+0x20d>
  40418b:	48 63 c7             	movslq %edi,%rax
  40418e:	48 8b 0c c1          	mov    (%rcx,%rax,8),%rcx
  404192:	48 f7 d1             	not    %rcx
  404195:	48 85 ce             	test   %rcx,%rsi
  404198:	75 29                	jne    4041c3 <__intel_new_feature_proc_init_n+0x93>
  40419a:	64 48 8b 04 25 28 00 	mov    %fs:0x28,%rax
  4041a1:	00 00 
  4041a3:	48 3b 84 24 30 04 00 	cmp    0x430(%rsp),%rax
  4041aa:	00 
  4041ab:	0f 85 7e 02 00 00    	jne    40442f <__intel_new_feature_proc_init_n+0x2ff>
  4041b1:	48 81 c4 38 04 00 00 	add    $0x438,%rsp
  4041b8:	5b                   	pop    %rbx
  4041b9:	41 5c                	pop    %r12
  4041bb:	41 5d                	pop    %r13
  4041bd:	41 5e                	pop    %r14
  4041bf:	41 5f                	pop    %r15
  4041c1:	5d                   	pop    %rbp
  4041c2:	c3                   	retq   
  4041c3:	48 21 f1             	and    %rsi,%rcx
  4041c6:	48 89 4c c4 10       	mov    %rcx,0x10(%rsp,%rax,8)
  4041cb:	45 31 ff             	xor    %r15d,%r15d
  4041ce:	bf 39 00 00 00       	mov    $0x39,%edi
  4041d3:	31 f6                	xor    %esi,%esi
  4041d5:	31 c0                	xor    %eax,%eax
  4041d7:	e8 54 1c 00 00       	callq  405e30 <__libirc_get_msg>
  4041dc:	48 89 04 24          	mov    %rax,(%rsp)
  4041e0:	c6 44 24 30 00       	movb   $0x0,0x30(%rsp)
  4041e5:	bd 01 00 00 00       	mov    $0x1,%ebp
  4041ea:	4c 8d 64 24 10       	lea    0x10(%rsp),%r12
  4041ef:	4c 8d 6c 24 30       	lea    0x30(%rsp),%r13
  4041f4:	45 31 f6             	xor    %r14d,%r14d
  4041f7:	eb 31                	jmp    40422a <__intel_new_feature_proc_init_n+0xfa>
  4041f9:	b8 ff 03 00 00       	mov    $0x3ff,%eax
  4041fe:	44 29 f8             	sub    %r15d,%eax
  404201:	48 63 d0             	movslq %eax,%rdx
  404204:	b9 00 04 00 00       	mov    $0x400,%ecx
  404209:	4c 89 ef             	mov    %r13,%rdi
  40420c:	48 89 de             	mov    %rbx,%rsi
  40420f:	e8 8c de ff ff       	callq  4020a0 <__strncat_chk@plt>
  404214:	4c 89 ef             	mov    %r13,%rdi
  404217:	e8 74 de ff ff       	callq  402090 <strlen@plt>
  40421c:	49 89 c7             	mov    %rax,%r15
  40421f:	ff c5                	inc    %ebp
  404221:	83 fd 47             	cmp    $0x47,%ebp
  404224:	0f 84 50 01 00 00    	je     40437a <__intel_new_feature_proc_init_n+0x24a>
  40422a:	89 e8                	mov    %ebp,%eax
  40422c:	e8 8f 19 00 00       	callq  405bc0 <__libirc_get_feature_bitpos>
  404231:	85 c0                	test   %eax,%eax
  404233:	78 ea                	js     40421f <__intel_new_feature_proc_init_n+0xef>
  404235:	4c 89 e7             	mov    %r12,%rdi
  404238:	89 ee                	mov    %ebp,%esi
  40423a:	e8 c1 19 00 00       	callq  405c00 <__libirc_get_cpu_feature>
  40423f:	85 c0                	test   %eax,%eax
  404241:	74 dc                	je     40421f <__intel_new_feature_proc_init_n+0xef>
  404243:	4c 89 e7             	mov    %r12,%rdi
  404246:	89 ee                	mov    %ebp,%esi
  404248:	e8 b3 19 00 00       	callq  405c00 <__libirc_get_cpu_feature>
  40424d:	85 c0                	test   %eax,%eax
  40424f:	0f 88 e8 00 00 00    	js     40433d <__intel_new_feature_proc_init_n+0x20d>
  404255:	89 ef                	mov    %ebp,%edi
  404257:	e8 74 0e 00 00       	callq  4050d0 <__libirc_get_feature_name>
  40425c:	48 85 c0             	test   %rax,%rax
  40425f:	0f 84 d8 00 00 00    	je     40433d <__intel_new_feature_proc_init_n+0x20d>
  404265:	48 89 c3             	mov    %rax,%rbx
  404268:	80 38 00             	cmpb   $0x0,(%rax)
  40426b:	0f 84 cc 00 00 00    	je     40433d <__intel_new_feature_proc_init_n+0x20d>
  404271:	80 7c 24 30 00       	cmpb   $0x0,0x30(%rsp)
  404276:	74 81                	je     4041f9 <__intel_new_feature_proc_init_n+0xc9>
  404278:	4d 85 f6             	test   %r14,%r14
  40427b:	0f 84 b4 00 00 00    	je     404335 <__intel_new_feature_proc_init_n+0x205>
  404281:	4d 89 ec             	mov    %r13,%r12
  404284:	4c 89 f7             	mov    %r14,%rdi
  404287:	e8 04 de ff ff       	callq  402090 <strlen@plt>
  40428c:	49 89 c5             	mov    %rax,%r13
  40428f:	48 8d 3d 5e 59 00 00 	lea    0x595e(%rip),%rdi        # 409bf4 <__libm_error_support.__libm_errno_table+0x8>
  404296:	e8 f5 dd ff ff       	callq  402090 <strlen@plt>
  40429b:	48 89 44 24 28       	mov    %rax,0x28(%rsp)
  4042a0:	4c 89 74 24 08       	mov    %r14,0x8(%rsp)
  4042a5:	4d 63 f7             	movslq %r15d,%r14
  4042a8:	48 8b 3c 24          	mov    (%rsp),%rdi
  4042ac:	e8 df dd ff ff       	callq  402090 <strlen@plt>
  4042b1:	49 89 c7             	mov    %rax,%r15
  4042b4:	48 89 df             	mov    %rbx,%rdi
  4042b7:	e8 d4 dd ff ff       	callq  402090 <strlen@plt>
  4042bc:	4d 01 f5             	add    %r14,%r13
  4042bf:	4c 03 6c 24 28       	add    0x28(%rsp),%r13
  4042c4:	4d 01 fd             	add    %r15,%r13
  4042c7:	49 01 c5             	add    %rax,%r13
  4042ca:	b8 ff 03 00 00       	mov    $0x3ff,%eax
  4042cf:	44 29 f0             	sub    %r14d,%eax
  4042d2:	48 63 d0             	movslq %eax,%rdx
  4042d5:	49 81 fd ff 03 00 00 	cmp    $0x3ff,%r13
  4042dc:	0f 87 c9 00 00 00    	ja     4043ab <__intel_new_feature_proc_init_n+0x27b>
  4042e2:	b9 00 04 00 00       	mov    $0x400,%ecx
  4042e7:	4d 89 e5             	mov    %r12,%r13
  4042ea:	4c 89 e7             	mov    %r12,%rdi
  4042ed:	48 8d 35 00 59 00 00 	lea    0x5900(%rip),%rsi        # 409bf4 <__libm_error_support.__libm_errno_table+0x8>
  4042f4:	e8 a7 dd ff ff       	callq  4020a0 <__strncat_chk@plt>
  4042f9:	4c 89 e7             	mov    %r12,%rdi
  4042fc:	e8 8f dd ff ff       	callq  402090 <strlen@plt>
  404301:	48 c1 e0 20          	shl    $0x20,%rax
  404305:	48 ba 00 00 00 00 ff 	movabs $0x3ff00000000,%rdx
  40430c:	03 00 00 
  40430f:	48 29 c2             	sub    %rax,%rdx
  404312:	48 c1 fa 20          	sar    $0x20,%rdx
  404316:	b9 00 04 00 00       	mov    $0x400,%ecx
  40431b:	4c 89 e7             	mov    %r12,%rdi
  40431e:	48 8b 74 24 08       	mov    0x8(%rsp),%rsi
  404323:	e8 78 dd ff ff       	callq  4020a0 <__strncat_chk@plt>
  404328:	49 89 de             	mov    %rbx,%r14
  40432b:	4c 8d 64 24 10       	lea    0x10(%rsp),%r12
  404330:	e9 df fe ff ff       	jmpq   404214 <__intel_new_feature_proc_init_n+0xe4>
  404335:	49 89 de             	mov    %rbx,%r14
  404338:	e9 e2 fe ff ff       	jmpq   40421f <__intel_new_feature_proc_init_n+0xef>
  40433d:	bf 01 00 00 00       	mov    $0x1,%edi
  404342:	31 f6                	xor    %esi,%esi
  404344:	31 d2                	xor    %edx,%edx
  404346:	31 c0                	xor    %eax,%eax
  404348:	e8 23 1d 00 00       	callq  406070 <__libirc_print>
  40434d:	bf 01 00 00 00       	mov    $0x1,%edi
  404352:	be 3a 00 00 00       	mov    $0x3a,%esi
  404357:	31 d2                	xor    %edx,%edx
  404359:	31 c0                	xor    %eax,%eax
  40435b:	e8 10 1d 00 00       	callq  406070 <__libirc_print>
  404360:	bf 01 00 00 00       	mov    $0x1,%edi
  404365:	31 f6                	xor    %esi,%esi
  404367:	31 d2                	xor    %edx,%edx
  404369:	31 c0                	xor    %eax,%eax
  40436b:	e8 00 1d 00 00       	callq  406070 <__libirc_print>
  404370:	bf 01 00 00 00       	mov    $0x1,%edi
  404375:	e8 46 de ff ff       	callq  4021c0 <exit@plt>
  40437a:	4d 85 f6             	test   %r14,%r14
  40437d:	74 74                	je     4043f3 <__intel_new_feature_proc_init_n+0x2c3>
  40437f:	4d 89 f4             	mov    %r14,%r12
  404382:	b8 ff 03 00 00       	mov    $0x3ff,%eax
  404387:	44 29 f8             	sub    %r15d,%eax
  40438a:	48 63 d0             	movslq %eax,%rdx
  40438d:	eb 21                	jmp    4043b0 <__intel_new_feature_proc_init_n+0x280>
  40438f:	bf 01 00 00 00       	mov    $0x1,%edi
  404394:	31 f6                	xor    %esi,%esi
  404396:	31 d2                	xor    %edx,%edx
  404398:	31 c0                	xor    %eax,%eax
  40439a:	e8 d1 1c 00 00       	callq  406070 <__libirc_print>
  40439f:	bf 01 00 00 00       	mov    $0x1,%edi
  4043a4:	be 3b 00 00 00       	mov    $0x3b,%esi
  4043a9:	eb ac                	jmp    404357 <__intel_new_feature_proc_init_n+0x227>
  4043ab:	4c 8b 64 24 08       	mov    0x8(%rsp),%r12
  4043b0:	48 8d 5c 24 30       	lea    0x30(%rsp),%rbx
  4043b5:	b9 00 04 00 00       	mov    $0x400,%ecx
  4043ba:	48 89 df             	mov    %rbx,%rdi
  4043bd:	48 8b 34 24          	mov    (%rsp),%rsi
  4043c1:	e8 da dc ff ff       	callq  4020a0 <__strncat_chk@plt>
  4043c6:	48 89 df             	mov    %rbx,%rdi
  4043c9:	e8 c2 dc ff ff       	callq  402090 <strlen@plt>
  4043ce:	48 c1 e0 20          	shl    $0x20,%rax
  4043d2:	48 ba 00 00 00 00 ff 	movabs $0x3ff00000000,%rdx
  4043d9:	03 00 00 
  4043dc:	48 29 c2             	sub    %rax,%rdx
  4043df:	48 c1 fa 20          	sar    $0x20,%rdx
  4043e3:	b9 00 04 00 00       	mov    $0x400,%ecx
  4043e8:	48 89 df             	mov    %rbx,%rdi
  4043eb:	4c 89 e6             	mov    %r12,%rsi
  4043ee:	e8 ad dc ff ff       	callq  4020a0 <__strncat_chk@plt>
  4043f3:	8a 5c 24 30          	mov    0x30(%rsp),%bl
  4043f7:	bf 01 00 00 00       	mov    $0x1,%edi
  4043fc:	31 f6                	xor    %esi,%esi
  4043fe:	31 d2                	xor    %edx,%edx
  404400:	31 c0                	xor    %eax,%eax
  404402:	e8 69 1c 00 00       	callq  406070 <__libirc_print>
  404407:	84 db                	test   %bl,%bl
  404409:	0f 84 3e ff ff ff    	je     40434d <__intel_new_feature_proc_init_n+0x21d>
  40440f:	48 8d 4c 24 30       	lea    0x30(%rsp),%rcx
  404414:	bf 01 00 00 00       	mov    $0x1,%edi
  404419:	be 38 00 00 00       	mov    $0x38,%esi
  40441e:	ba 01 00 00 00       	mov    $0x1,%edx
  404423:	31 c0                	xor    %eax,%eax
  404425:	e8 46 1c 00 00       	callq  406070 <__libirc_print>
  40442a:	e9 31 ff ff ff       	jmpq   404360 <__intel_new_feature_proc_init_n+0x230>
  40442f:	e8 6c dd ff ff       	callq  4021a0 <__stack_chk_fail@plt>
  404434:	66 66 66 2e 0f 1f 84 	data16 data16 nopw %cs:0x0(%rax,%rax,1)
  40443b:	00 00 00 00 00 

0000000000404440 <__intel_new_feature_proc_init>:
  404440:	f3 0f 1e fa          	endbr64 
  404444:	53                   	push   %rbx
  404445:	89 fb                	mov    %edi,%ebx
  404447:	31 ff                	xor    %edi,%edi
  404449:	e8 e2 fc ff ff       	callq  404130 <__intel_new_feature_proc_init_n>
  40444e:	48 c7 c7 10 e4 40 00 	mov    $0x40e410,%rdi
  404455:	be 06 00 00 00       	mov    $0x6,%esi
  40445a:	e8 a1 17 00 00       	callq  405c00 <__libirc_get_cpu_feature>
  40445f:	83 f8 01             	cmp    $0x1,%eax
  404462:	75 0a                	jne    40446e <__intel_new_feature_proc_init+0x2e>
  404464:	31 ff                	xor    %edi,%edi
  404466:	89 de                	mov    %ebx,%esi
  404468:	5b                   	pop    %rbx
  404469:	e9 52 00 00 00       	jmpq   4044c0 <__intel_proc_init_ftzdazule>
  40446e:	85 c0                	test   %eax,%eax
  404470:	78 02                	js     404474 <__intel_new_feature_proc_init+0x34>
  404472:	5b                   	pop    %rbx
  404473:	c3                   	retq   
  404474:	bf 01 00 00 00       	mov    $0x1,%edi
  404479:	31 f6                	xor    %esi,%esi
  40447b:	31 d2                	xor    %edx,%edx
  40447d:	31 c0                	xor    %eax,%eax
  40447f:	e8 ec 1b 00 00       	callq  406070 <__libirc_print>
  404484:	bf 01 00 00 00       	mov    $0x1,%edi
  404489:	be 3a 00 00 00       	mov    $0x3a,%esi
  40448e:	31 d2                	xor    %edx,%edx
  404490:	31 c0                	xor    %eax,%eax
  404492:	e8 d9 1b 00 00       	callq  406070 <__libirc_print>
  404497:	bf 01 00 00 00       	mov    $0x1,%edi
  40449c:	31 f6                	xor    %esi,%esi
  40449e:	31 d2                	xor    %edx,%edx
  4044a0:	31 c0                	xor    %eax,%eax
  4044a2:	e8 c9 1b 00 00       	callq  406070 <__libirc_print>
  4044a7:	bf 01 00 00 00       	mov    $0x1,%edi
  4044ac:	e8 0f dd ff ff       	callq  4021c0 <exit@plt>
  4044b1:	66 2e 0f 1f 84 00 00 	nopw   %cs:0x0(%rax,%rax,1)
  4044b8:	00 00 00 
  4044bb:	0f 1f 44 00 00       	nopl   0x0(%rax,%rax,1)

00000000004044c0 <__intel_proc_init_ftzdazule>:
  4044c0:	f3 0f 1e fa          	endbr64 
  4044c4:	55                   	push   %rbp
  4044c5:	41 56                	push   %r14
  4044c7:	53                   	push   %rbx
  4044c8:	48 81 ec 20 02 00 00 	sub    $0x220,%rsp
  4044cf:	41 89 f6             	mov    %esi,%r14d
  4044d2:	89 f3                	mov    %esi,%ebx
  4044d4:	83 e3 04             	and    $0x4,%ebx
  4044d7:	89 f5                	mov    %esi,%ebp
  4044d9:	83 e5 02             	and    $0x2,%ebp
  4044dc:	74 07                	je     4044e5 <__intel_proc_init_ftzdazule+0x25>
  4044de:	89 f8                	mov    %edi,%eax
  4044e0:	83 e0 02             	and    $0x2,%eax
  4044e3:	74 11                	je     4044f6 <__intel_proc_init_ftzdazule+0x36>
  4044e5:	31 c0                	xor    %eax,%eax
  4044e7:	85 db                	test   %ebx,%ebx
  4044e9:	74 37                	je     404522 <__intel_proc_init_ftzdazule+0x62>
  4044eb:	b8 01 00 00 00       	mov    $0x1,%eax
  4044f0:	40 f6 c7 04          	test   $0x4,%dil
  4044f4:	75 2c                	jne    404522 <__intel_proc_init_ftzdazule+0x62>
  4044f6:	48 8d 7c 24 20       	lea    0x20(%rsp),%rdi
  4044fb:	ba 00 02 00 00       	mov    $0x200,%edx
  404500:	31 f6                	xor    %esi,%esi
  404502:	e8 d9 db ff ff       	callq  4020e0 <memset@plt>
  404507:	0f ae 44 24 20       	fxsave 0x20(%rsp)
  40450c:	8b 44 24 3c          	mov    0x3c(%rsp),%eax
  404510:	89 c1                	mov    %eax,%ecx
  404512:	c1 e1 19             	shl    $0x19,%ecx
  404515:	c1 f9 1f             	sar    $0x1f,%ecx
  404518:	21 cd                	and    %ecx,%ebp
  40451a:	c1 e0 0e             	shl    $0xe,%eax
  40451d:	c1 f8 1f             	sar    $0x1f,%eax
  404520:	21 d8                	and    %ebx,%eax
  404522:	41 f6 c6 01          	test   $0x1,%r14b
  404526:	74 17                	je     40453f <__intel_proc_init_ftzdazule+0x7f>
  404528:	0f ae 5c 24 1c       	stmxcsr 0x1c(%rsp)
  40452d:	b9 00 80 00 00       	mov    $0x8000,%ecx
  404532:	0b 4c 24 1c          	or     0x1c(%rsp),%ecx
  404536:	89 4c 24 18          	mov    %ecx,0x18(%rsp)
  40453a:	0f ae 54 24 18       	ldmxcsr 0x18(%rsp)
  40453f:	85 ed                	test   %ebp,%ebp
  404541:	74 15                	je     404558 <__intel_proc_init_ftzdazule+0x98>
  404543:	0f ae 5c 24 14       	stmxcsr 0x14(%rsp)
  404548:	8b 4c 24 14          	mov    0x14(%rsp),%ecx
  40454c:	83 c9 40             	or     $0x40,%ecx
  40454f:	89 4c 24 10          	mov    %ecx,0x10(%rsp)
  404553:	0f ae 54 24 10       	ldmxcsr 0x10(%rsp)
  404558:	85 c0                	test   %eax,%eax
  40455a:	74 17                	je     404573 <__intel_proc_init_ftzdazule+0xb3>
  40455c:	0f ae 5c 24 0c       	stmxcsr 0xc(%rsp)
  404561:	b8 00 00 02 00       	mov    $0x20000,%eax
  404566:	0b 44 24 0c          	or     0xc(%rsp),%eax
  40456a:	89 44 24 08          	mov    %eax,0x8(%rsp)
  40456e:	0f ae 54 24 08       	ldmxcsr 0x8(%rsp)
  404573:	48 81 c4 20 02 00 00 	add    $0x220,%rsp
  40457a:	5b                   	pop    %rbx
  40457b:	41 5e                	pop    %r14
  40457d:	5d                   	pop    %rbp
  40457e:	c3                   	retq   
  40457f:	90                   	nop

0000000000404580 <__intel_sse4_strlen>:
  404580:	f3 0f 1e fa          	endbr64 
  404584:	48 83 c0 10          	add    $0x10,%rax
  404588:	f3 0f 6f 00          	movdqu (%rax),%xmm0
  40458c:	66 0f 3a 63 c0 3a    	pcmpistri $0x3a,%xmm0,%xmm0
  404592:	89 c9                	mov    %ecx,%ecx
  404594:	73 ee                	jae    404584 <__intel_sse4_strlen+0x4>
  404596:	48 2b ca             	sub    %rdx,%rcx
  404599:	48 03 c1             	add    %rcx,%rax
  40459c:	c3                   	retq   
  40459d:	0f 1f 00             	nopl   (%rax)

00000000004045a0 <__intel_cpu_features_init>:
  4045a0:	f3 0f 1e fa          	endbr64 
  4045a4:	50                   	push   %rax
  4045a5:	b8 01 00 00 00       	mov    $0x1,%eax
  4045aa:	e8 11 00 00 00       	callq  4045c0 <__intel_cpu_features_init_body>
  4045af:	48 83 c4 08          	add    $0x8,%rsp
  4045b3:	c3                   	retq   
  4045b4:	66 66 66 2e 0f 1f 84 	data16 data16 nopw %cs:0x0(%rax,%rax,1)
  4045bb:	00 00 00 00 00 

00000000004045c0 <__intel_cpu_features_init_body>:
  4045c0:	41 53                	push   %r11
  4045c2:	41 52                	push   %r10
  4045c4:	41 51                	push   %r9
  4045c6:	41 50                	push   %r8
  4045c8:	52                   	push   %rdx
  4045c9:	51                   	push   %rcx
  4045ca:	56                   	push   %rsi
  4045cb:	57                   	push   %rdi
  4045cc:	55                   	push   %rbp
  4045cd:	53                   	push   %rbx
  4045ce:	48 81 ec 38 01 00 00 	sub    $0x138,%rsp
  4045d5:	44 0f 29 bc 24 20 01 	movaps %xmm15,0x120(%rsp)
  4045dc:	00 00 
  4045de:	44 0f 29 b4 24 10 01 	movaps %xmm14,0x110(%rsp)
  4045e5:	00 00 
  4045e7:	44 0f 29 ac 24 00 01 	movaps %xmm13,0x100(%rsp)
  4045ee:	00 00 
  4045f0:	44 0f 29 a4 24 f0 00 	movaps %xmm12,0xf0(%rsp)
  4045f7:	00 00 
  4045f9:	44 0f 29 9c 24 e0 00 	movaps %xmm11,0xe0(%rsp)
  404600:	00 00 
  404602:	44 0f 29 94 24 d0 00 	movaps %xmm10,0xd0(%rsp)
  404609:	00 00 
  40460b:	44 0f 29 8c 24 c0 00 	movaps %xmm9,0xc0(%rsp)
  404612:	00 00 
  404614:	44 0f 29 84 24 b0 00 	movaps %xmm8,0xb0(%rsp)
  40461b:	00 00 
  40461d:	0f 29 bc 24 a0 00 00 	movaps %xmm7,0xa0(%rsp)
  404624:	00 
  404625:	0f 29 b4 24 90 00 00 	movaps %xmm6,0x90(%rsp)
  40462c:	00 
  40462d:	0f 29 ac 24 80 00 00 	movaps %xmm5,0x80(%rsp)
  404634:	00 
  404635:	0f 29 64 24 70       	movaps %xmm4,0x70(%rsp)
  40463a:	0f 29 5c 24 60       	movaps %xmm3,0x60(%rsp)
  40463f:	0f 29 54 24 50       	movaps %xmm2,0x50(%rsp)
  404644:	0f 29 4c 24 40       	movaps %xmm1,0x40(%rsp)
  404649:	0f 29 44 24 30       	movaps %xmm0,0x30(%rsp)
  40464e:	89 c5                	mov    %eax,%ebp
  404650:	0f 57 c0             	xorps  %xmm0,%xmm0
  404653:	0f 29 04 24          	movaps %xmm0,(%rsp)
  404657:	0f 29 44 24 20       	movaps %xmm0,0x20(%rsp)
  40465c:	48 89 e0             	mov    %rsp,%rax
  40465f:	b9 01 00 00 00       	mov    $0x1,%ecx
  404664:	e8 e7 15 00 00       	callq  405c50 <__libirc_set_cpu_feature>
  404669:	85 c0                	test   %eax,%eax
  40466b:	0f 85 bb 03 00 00    	jne    404a2c <__intel_cpu_features_init_body+0x46c>
  404671:	31 c0                	xor    %eax,%eax
  404673:	0f a2                	cpuid  
  404675:	89 44 24 1c          	mov    %eax,0x1c(%rsp)
  404679:	89 5c 24 18          	mov    %ebx,0x18(%rsp)
  40467d:	89 4c 24 14          	mov    %ecx,0x14(%rsp)
  404681:	89 54 24 10          	mov    %edx,0x10(%rsp)
  404685:	83 7c 24 1c 00       	cmpl   $0x0,0x1c(%rsp)
  40468a:	0f 84 8f 03 00 00    	je     404a1f <__intel_cpu_features_init_body+0x45f>
  404690:	83 fd 01             	cmp    $0x1,%ebp
  404693:	75 2a                	jne    4046bf <__intel_cpu_features_init_body+0xff>
  404695:	81 7c 24 18 47 65 6e 	cmpl   $0x756e6547,0x18(%rsp)
  40469c:	75 
  40469d:	0f 85 7c 03 00 00    	jne    404a1f <__intel_cpu_features_init_body+0x45f>
  4046a3:	81 7c 24 10 69 6e 65 	cmpl   $0x49656e69,0x10(%rsp)
  4046aa:	49 
  4046ab:	0f 85 6e 03 00 00    	jne    404a1f <__intel_cpu_features_init_body+0x45f>
  4046b1:	81 7c 24 14 6e 74 65 	cmpl   $0x6c65746e,0x14(%rsp)
  4046b8:	6c 
  4046b9:	0f 85 60 03 00 00    	jne    404a1f <__intel_cpu_features_init_body+0x45f>
  4046bf:	b8 01 00 00 00       	mov    $0x1,%eax
  4046c4:	0f a2                	cpuid  
  4046c6:	89 d7                	mov    %edx,%edi
  4046c8:	89 ce                	mov    %ecx,%esi
  4046ca:	40 f6 c7 01          	test   $0x1,%dil
  4046ce:	74 15                	je     4046e5 <__intel_cpu_features_init_body+0x125>
  4046d0:	48 89 e0             	mov    %rsp,%rax
  4046d3:	b9 02 00 00 00       	mov    $0x2,%ecx
  4046d8:	e8 73 15 00 00       	callq  405c50 <__libirc_set_cpu_feature>
  4046dd:	85 c0                	test   %eax,%eax
  4046df:	0f 85 47 03 00 00    	jne    404a2c <__intel_cpu_features_init_body+0x46c>
  4046e5:	f7 c7 00 80 00 00    	test   $0x8000,%edi
  4046eb:	74 15                	je     404702 <__intel_cpu_features_init_body+0x142>
  4046ed:	48 89 e0             	mov    %rsp,%rax
  4046f0:	b9 03 00 00 00       	mov    $0x3,%ecx
  4046f5:	e8 56 15 00 00       	callq  405c50 <__libirc_set_cpu_feature>
  4046fa:	85 c0                	test   %eax,%eax
  4046fc:	0f 85 2a 03 00 00    	jne    404a2c <__intel_cpu_features_init_body+0x46c>
  404702:	f7 c7 00 00 80 00    	test   $0x800000,%edi
  404708:	74 15                	je     40471f <__intel_cpu_features_init_body+0x15f>
  40470a:	48 89 e0             	mov    %rsp,%rax
  40470d:	b9 04 00 00 00       	mov    $0x4,%ecx
  404712:	e8 39 15 00 00       	callq  405c50 <__libirc_set_cpu_feature>
  404717:	85 c0                	test   %eax,%eax
  404719:	0f 85 0d 03 00 00    	jne    404a2c <__intel_cpu_features_init_body+0x46c>
  40471f:	f7 c7 00 00 00 01    	test   $0x1000000,%edi
  404725:	0f 85 90 03 00 00    	jne    404abb <__intel_cpu_features_init_body+0x4fb>
  40472b:	f7 c6 00 00 00 40    	test   $0x40000000,%esi
  404731:	74 15                	je     404748 <__intel_cpu_features_init_body+0x188>
  404733:	48 89 e0             	mov    %rsp,%rax
  404736:	b9 12 00 00 00       	mov    $0x12,%ecx
  40473b:	e8 10 15 00 00       	callq  405c50 <__libirc_set_cpu_feature>
  404740:	85 c0                	test   %eax,%eax
  404742:	0f 85 e4 02 00 00    	jne    404a2c <__intel_cpu_features_init_body+0x46c>
  404748:	f7 c7 00 00 00 01    	test   $0x1000000,%edi
  40474e:	75 12                	jne    404762 <__intel_cpu_features_init_body+0x1a2>
  404750:	b8 07 00 00 00       	mov    $0x7,%eax
  404755:	31 c9                	xor    %ecx,%ecx
  404757:	0f a2                	cpuid  
  404759:	41 89 c9             	mov    %ecx,%r9d
  40475c:	41 89 d0             	mov    %edx,%r8d
  40475f:	41 89 da             	mov    %ebx,%r10d
  404762:	44 89 d0             	mov    %r10d,%eax
  404765:	f7 d0                	not    %eax
  404767:	a9 08 01 00 00       	test   $0x108,%eax
  40476c:	75 15                	jne    404783 <__intel_cpu_features_init_body+0x1c3>
  40476e:	48 89 e0             	mov    %rsp,%rax
  404771:	b9 14 00 00 00       	mov    $0x14,%ecx
  404776:	e8 d5 14 00 00       	callq  405c50 <__libirc_set_cpu_feature>
  40477b:	85 c0                	test   %eax,%eax
  40477d:	0f 85 a9 02 00 00    	jne    404a2c <__intel_cpu_features_init_body+0x46c>
  404783:	41 f6 c2 04          	test   $0x4,%r10b
  404787:	74 15                	je     40479e <__intel_cpu_features_init_body+0x1de>
  404789:	48 89 e0             	mov    %rsp,%rax
  40478c:	b9 36 00 00 00       	mov    $0x36,%ecx
  404791:	e8 ba 14 00 00       	callq  405c50 <__libirc_set_cpu_feature>
  404796:	85 c0                	test   %eax,%eax
  404798:	0f 85 8e 02 00 00    	jne    404a2c <__intel_cpu_features_init_body+0x46c>
  40479e:	41 f6 c2 10          	test   $0x10,%r10b
  4047a2:	74 15                	je     4047b9 <__intel_cpu_features_init_body+0x1f9>
  4047a4:	48 89 e0             	mov    %rsp,%rax
  4047a7:	b9 16 00 00 00       	mov    $0x16,%ecx
  4047ac:	e8 9f 14 00 00       	callq  405c50 <__libirc_set_cpu_feature>
  4047b1:	85 c0                	test   %eax,%eax
  4047b3:	0f 85 73 02 00 00    	jne    404a2c <__intel_cpu_features_init_body+0x46c>
  4047b9:	41 f7 c2 00 08 00 00 	test   $0x800,%r10d
  4047c0:	74 15                	je     4047d7 <__intel_cpu_features_init_body+0x217>
  4047c2:	48 89 e0             	mov    %rsp,%rax
  4047c5:	b9 17 00 00 00       	mov    $0x17,%ecx
  4047ca:	e8 81 14 00 00       	callq  405c50 <__libirc_set_cpu_feature>
  4047cf:	85 c0                	test   %eax,%eax
  4047d1:	0f 85 55 02 00 00    	jne    404a2c <__intel_cpu_features_init_body+0x46c>
  4047d7:	41 f7 c2 00 00 08 00 	test   $0x80000,%r10d
  4047de:	74 15                	je     4047f5 <__intel_cpu_features_init_body+0x235>
  4047e0:	48 89 e0             	mov    %rsp,%rax
  4047e3:	b9 1d 00 00 00       	mov    $0x1d,%ecx
  4047e8:	e8 63 14 00 00       	callq  405c50 <__libirc_set_cpu_feature>
  4047ed:	85 c0                	test   %eax,%eax
  4047ef:	0f 85 37 02 00 00    	jne    404a2c <__intel_cpu_features_init_body+0x46c>
  4047f5:	41 f7 c2 00 00 04 00 	test   $0x40000,%r10d
  4047fc:	74 15                	je     404813 <__intel_cpu_features_init_body+0x253>
  4047fe:	48 89 e0             	mov    %rsp,%rax
  404801:	b9 1e 00 00 00       	mov    $0x1e,%ecx
  404806:	e8 45 14 00 00       	callq  405c50 <__libirc_set_cpu_feature>
  40480b:	85 c0                	test   %eax,%eax
  40480d:	0f 85 19 02 00 00    	jne    404a2c <__intel_cpu_features_init_body+0x46c>
  404813:	41 f7 c2 00 00 00 01 	test   $0x1000000,%r10d
  40481a:	74 15                	je     404831 <__intel_cpu_features_init_body+0x271>
  40481c:	48 89 e0             	mov    %rsp,%rax
  40481f:	b9 32 00 00 00       	mov    $0x32,%ecx
  404824:	e8 27 14 00 00       	callq  405c50 <__libirc_set_cpu_feature>
  404829:	85 c0                	test   %eax,%eax
  40482b:	0f 85 fb 01 00 00    	jne    404a2c <__intel_cpu_features_init_body+0x46c>
  404831:	b8 01 00 00 80       	mov    $0x80000001,%eax
  404836:	0f a2                	cpuid  
  404838:	f6 c1 20             	test   $0x20,%cl
  40483b:	74 15                	je     404852 <__intel_cpu_features_init_body+0x292>
  40483d:	48 89 e0             	mov    %rsp,%rax
  404840:	b9 15 00 00 00       	mov    $0x15,%ecx
  404845:	e8 06 14 00 00       	callq  405c50 <__libirc_set_cpu_feature>
  40484a:	85 c0                	test   %eax,%eax
  40484c:	0f 85 da 01 00 00    	jne    404a2c <__intel_cpu_features_init_body+0x46c>
  404852:	b8 08 00 00 80       	mov    $0x80000008,%eax
  404857:	0f a2                	cpuid  
  404859:	f7 c3 00 02 00 00    	test   $0x200,%ebx
  40485f:	74 15                	je     404876 <__intel_cpu_features_init_body+0x2b6>
  404861:	48 89 e0             	mov    %rsp,%rax
  404864:	b9 37 00 00 00       	mov    $0x37,%ecx
  404869:	e8 e2 13 00 00       	callq  405c50 <__libirc_set_cpu_feature>
  40486e:	85 c0                	test   %eax,%eax
  404870:	0f 85 b6 01 00 00    	jne    404a2c <__intel_cpu_features_init_body+0x46c>
  404876:	41 f6 c1 20          	test   $0x20,%r9b
  40487a:	74 15                	je     404891 <__intel_cpu_features_init_body+0x2d1>
  40487c:	48 89 e0             	mov    %rsp,%rax
  40487f:	b9 3e 00 00 00       	mov    $0x3e,%ecx
  404884:	e8 c7 13 00 00       	callq  405c50 <__libirc_set_cpu_feature>
  404889:	85 c0                	test   %eax,%eax
  40488b:	0f 85 9b 01 00 00    	jne    404a2c <__intel_cpu_features_init_body+0x46c>
  404891:	41 f6 c1 80          	test   $0x80,%r9b
  404895:	74 15                	je     4048ac <__intel_cpu_features_init_body+0x2ec>
  404897:	48 89 e0             	mov    %rsp,%rax
  40489a:	b9 35 00 00 00       	mov    $0x35,%ecx
  40489f:	e8 ac 13 00 00       	callq  405c50 <__libirc_set_cpu_feature>
  4048a4:	85 c0                	test   %eax,%eax
  4048a6:	0f 85 80 01 00 00    	jne    404a2c <__intel_cpu_features_init_body+0x46c>
  4048ac:	41 f7 c1 00 01 00 00 	test   $0x100,%r9d
  4048b3:	74 15                	je     4048ca <__intel_cpu_features_init_body+0x30a>
  4048b5:	48 89 e0             	mov    %rsp,%rax
  4048b8:	b9 2e 00 00 00       	mov    $0x2e,%ecx
  4048bd:	e8 8e 13 00 00       	callq  405c50 <__libirc_set_cpu_feature>
  4048c2:	85 c0                	test   %eax,%eax
  4048c4:	0f 85 62 01 00 00    	jne    404a2c <__intel_cpu_features_init_body+0x46c>
  4048ca:	41 f7 c1 00 00 40 00 	test   $0x400000,%r9d
  4048d1:	74 15                	je     4048e8 <__intel_cpu_features_init_body+0x328>
  4048d3:	48 89 e0             	mov    %rsp,%rax
  4048d6:	b9 33 00 00 00       	mov    $0x33,%ecx
  4048db:	e8 70 13 00 00       	callq  405c50 <__libirc_set_cpu_feature>
  4048e0:	85 c0                	test   %eax,%eax
  4048e2:	0f 85 44 01 00 00    	jne    404a2c <__intel_cpu_features_init_body+0x46c>
  4048e8:	41 f7 c1 00 00 00 01 	test   $0x1000000,%r9d
  4048ef:	74 15                	je     404906 <__intel_cpu_features_init_body+0x346>
  4048f1:	48 89 e0             	mov    %rsp,%rax
  4048f4:	b9 3b 00 00 00       	mov    $0x3b,%ecx
  4048f9:	e8 52 13 00 00       	callq  405c50 <__libirc_set_cpu_feature>
  4048fe:	85 c0                	test   %eax,%eax
  404900:	0f 85 26 01 00 00    	jne    404a2c <__intel_cpu_features_init_body+0x46c>
  404906:	41 f7 c1 00 00 00 08 	test   $0x8000000,%r9d
  40490d:	74 15                	je     404924 <__intel_cpu_features_init_body+0x364>
  40490f:	48 89 e0             	mov    %rsp,%rax
  404912:	b9 3c 00 00 00       	mov    $0x3c,%ecx
  404917:	e8 34 13 00 00       	callq  405c50 <__libirc_set_cpu_feature>
  40491c:	85 c0                	test   %eax,%eax
  40491e:	0f 85 08 01 00 00    	jne    404a2c <__intel_cpu_features_init_body+0x46c>
  404924:	41 f7 c1 00 00 00 10 	test   $0x10000000,%r9d
  40492b:	74 15                	je     404942 <__intel_cpu_features_init_body+0x382>
  40492d:	48 89 e0             	mov    %rsp,%rax
  404930:	b9 3d 00 00 00       	mov    $0x3d,%ecx
  404935:	e8 16 13 00 00       	callq  405c50 <__libirc_set_cpu_feature>
  40493a:	85 c0                	test   %eax,%eax
  40493c:	0f 85 ea 00 00 00    	jne    404a2c <__intel_cpu_features_init_body+0x46c>
  404942:	41 f7 c1 00 00 00 20 	test   $0x20000000,%r9d
  404949:	74 15                	je     404960 <__intel_cpu_features_init_body+0x3a0>
  40494b:	48 89 e0             	mov    %rsp,%rax
  40494e:	b9 40 00 00 00       	mov    $0x40,%ecx
  404953:	e8 f8 12 00 00       	callq  405c50 <__libirc_set_cpu_feature>
  404958:	85 c0                	test   %eax,%eax
  40495a:	0f 85 cc 00 00 00    	jne    404a2c <__intel_cpu_features_init_body+0x46c>
  404960:	41 f7 c0 00 00 10 00 	test   $0x100000,%r8d
  404967:	74 15                	je     40497e <__intel_cpu_features_init_body+0x3be>
  404969:	48 89 e0             	mov    %rsp,%rax
  40496c:	b9 34 00 00 00       	mov    $0x34,%ecx
  404971:	e8 da 12 00 00       	callq  405c50 <__libirc_set_cpu_feature>
  404976:	85 c0                	test   %eax,%eax
  404978:	0f 85 ae 00 00 00    	jne    404a2c <__intel_cpu_features_init_body+0x46c>
  40497e:	41 f7 c0 00 00 04 00 	test   $0x40000,%r8d
  404985:	74 15                	je     40499c <__intel_cpu_features_init_body+0x3dc>
  404987:	48 89 e0             	mov    %rsp,%rax
  40498a:	b9 38 00 00 00       	mov    $0x38,%ecx
  40498f:	e8 bc 12 00 00       	callq  405c50 <__libirc_set_cpu_feature>
  404994:	85 c0                	test   %eax,%eax
  404996:	0f 85 90 00 00 00    	jne    404a2c <__intel_cpu_features_init_body+0x46c>
  40499c:	b8 14 00 00 00       	mov    $0x14,%eax
  4049a1:	31 c9                	xor    %ecx,%ecx
  4049a3:	0f a2                	cpuid  
  4049a5:	f6 c3 10             	test   $0x10,%bl
  4049a8:	74 11                	je     4049bb <__intel_cpu_features_init_body+0x3fb>
  4049aa:	48 89 e0             	mov    %rsp,%rax
  4049ad:	b9 1b 00 00 00       	mov    $0x1b,%ecx
  4049b2:	e8 99 12 00 00       	callq  405c50 <__libirc_set_cpu_feature>
  4049b7:	85 c0                	test   %eax,%eax
  4049b9:	75 71                	jne    404a2c <__intel_cpu_features_init_body+0x46c>
  4049bb:	41 f7 c1 00 00 80 00 	test   $0x800000,%r9d
  4049c2:	0f 85 5e 02 00 00    	jne    404c26 <__intel_cpu_features_init_body+0x666>
  4049c8:	f7 c6 00 00 00 08    	test   $0x8000000,%esi
  4049ce:	0f 85 ad 02 00 00    	jne    404c81 <__intel_cpu_features_init_body+0x6c1>
  4049d4:	48 8d 7c 24 20       	lea    0x20(%rsp),%rdi
  4049d9:	e8 d2 12 00 00       	callq  405cb0 <__libirc_handle_intel_isa_disable>
  4049de:	85 c0                	test   %eax,%eax
  4049e0:	7e 0d                	jle    4049ef <__intel_cpu_features_init_body+0x42f>
  4049e2:	0f 28 44 24 20       	movaps 0x20(%rsp),%xmm0
  4049e7:	0f 55 04 24          	andnps (%rsp),%xmm0
  4049eb:	0f 29 04 24          	movaps %xmm0,(%rsp)
  4049ef:	48 8b 44 24 08       	mov    0x8(%rsp),%rax
  4049f4:	83 fd 01             	cmp    $0x1,%ebp
  4049f7:	0f 85 19 06 00 00    	jne    405016 <__intel_cpu_features_init_body+0xa56>
  4049fd:	48 89 05 14 9a 00 00 	mov    %rax,0x9a14(%rip)        # 40e418 <__intel_cpu_feature_indicator+0x8>
  404a04:	48 8b 0c 24          	mov    (%rsp),%rcx
  404a08:	48 89 0d 01 9a 00 00 	mov    %rcx,0x9a01(%rip)        # 40e410 <__intel_cpu_feature_indicator>
  404a0f:	48 c7 c2 20 e4 40 00 	mov    $0x40e420,%rdx
  404a16:	48 89 42 08          	mov    %rax,0x8(%rdx)
  404a1a:	48 89 0a             	mov    %rcx,(%rdx)
  404a1d:	eb 0b                	jmp    404a2a <__intel_cpu_features_init_body+0x46a>
  404a1f:	0f 28 04 24          	movaps (%rsp),%xmm0
  404a23:	0f 29 05 e6 99 00 00 	movaps %xmm0,0x99e6(%rip)        # 40e410 <__intel_cpu_feature_indicator>
  404a2a:	31 c0                	xor    %eax,%eax
  404a2c:	0f 28 44 24 30       	movaps 0x30(%rsp),%xmm0
  404a31:	0f 28 4c 24 40       	movaps 0x40(%rsp),%xmm1
  404a36:	0f 28 54 24 50       	movaps 0x50(%rsp),%xmm2
  404a3b:	0f 28 5c 24 60       	movaps 0x60(%rsp),%xmm3
  404a40:	0f 28 64 24 70       	movaps 0x70(%rsp),%xmm4
  404a45:	0f 28 ac 24 80 00 00 	movaps 0x80(%rsp),%xmm5
  404a4c:	00 
  404a4d:	0f 28 b4 24 90 00 00 	movaps 0x90(%rsp),%xmm6
  404a54:	00 
  404a55:	0f 28 bc 24 a0 00 00 	movaps 0xa0(%rsp),%xmm7
  404a5c:	00 
  404a5d:	44 0f 28 84 24 b0 00 	movaps 0xb0(%rsp),%xmm8
  404a64:	00 00 
  404a66:	44 0f 28 8c 24 c0 00 	movaps 0xc0(%rsp),%xmm9
  404a6d:	00 00 
  404a6f:	44 0f 28 94 24 d0 00 	movaps 0xd0(%rsp),%xmm10
  404a76:	00 00 
  404a78:	44 0f 28 9c 24 e0 00 	movaps 0xe0(%rsp),%xmm11
  404a7f:	00 00 
  404a81:	44 0f 28 a4 24 f0 00 	movaps 0xf0(%rsp),%xmm12
  404a88:	00 00 
  404a8a:	44 0f 28 ac 24 00 01 	movaps 0x100(%rsp),%xmm13
  404a91:	00 00 
  404a93:	44 0f 28 b4 24 10 01 	movaps 0x110(%rsp),%xmm14
  404a9a:	00 00 
  404a9c:	44 0f 28 bc 24 20 01 	movaps 0x120(%rsp),%xmm15
  404aa3:	00 00 
  404aa5:	48 81 c4 38 01 00 00 	add    $0x138,%rsp
  404aac:	5b                   	pop    %rbx
  404aad:	5d                   	pop    %rbp
  404aae:	5f                   	pop    %rdi
  404aaf:	5e                   	pop    %rsi
  404ab0:	59                   	pop    %rcx
  404ab1:	5a                   	pop    %rdx
  404ab2:	41 58                	pop    %r8
  404ab4:	41 59                	pop    %r9
  404ab6:	41 5a                	pop    %r10
  404ab8:	41 5b                	pop    %r11
  404aba:	c3                   	retq   
  404abb:	48 89 e0             	mov    %rsp,%rax
  404abe:	b9 05 00 00 00       	mov    $0x5,%ecx
  404ac3:	e8 88 11 00 00       	callq  405c50 <__libirc_set_cpu_feature>
  404ac8:	85 c0                	test   %eax,%eax
  404aca:	0f 85 5c ff ff ff    	jne    404a2c <__intel_cpu_features_init_body+0x46c>
  404ad0:	f7 c7 00 00 00 02    	test   $0x2000000,%edi
  404ad6:	74 15                	je     404aed <__intel_cpu_features_init_body+0x52d>
  404ad8:	48 89 e0             	mov    %rsp,%rax
  404adb:	b9 06 00 00 00       	mov    $0x6,%ecx
  404ae0:	e8 6b 11 00 00       	callq  405c50 <__libirc_set_cpu_feature>
  404ae5:	85 c0                	test   %eax,%eax
  404ae7:	0f 85 3f ff ff ff    	jne    404a2c <__intel_cpu_features_init_body+0x46c>
  404aed:	f7 c7 00 00 00 04    	test   $0x4000000,%edi
  404af3:	74 15                	je     404b0a <__intel_cpu_features_init_body+0x54a>
  404af5:	48 89 e0             	mov    %rsp,%rax
  404af8:	b9 07 00 00 00       	mov    $0x7,%ecx
  404afd:	e8 4e 11 00 00       	callq  405c50 <__libirc_set_cpu_feature>
  404b02:	85 c0                	test   %eax,%eax
  404b04:	0f 85 22 ff ff ff    	jne    404a2c <__intel_cpu_features_init_body+0x46c>
  404b0a:	40 f6 c6 01          	test   $0x1,%sil
  404b0e:	74 15                	je     404b25 <__intel_cpu_features_init_body+0x565>
  404b10:	48 89 e0             	mov    %rsp,%rax
  404b13:	b9 08 00 00 00       	mov    $0x8,%ecx
  404b18:	e8 33 11 00 00       	callq  405c50 <__libirc_set_cpu_feature>
  404b1d:	85 c0                	test   %eax,%eax
  404b1f:	0f 85 07 ff ff ff    	jne    404a2c <__intel_cpu_features_init_body+0x46c>
  404b25:	f7 c6 00 02 00 00    	test   $0x200,%esi
  404b2b:	74 15                	je     404b42 <__intel_cpu_features_init_body+0x582>
  404b2d:	48 89 e0             	mov    %rsp,%rax
  404b30:	b9 09 00 00 00       	mov    $0x9,%ecx
  404b35:	e8 16 11 00 00       	callq  405c50 <__libirc_set_cpu_feature>
  404b3a:	85 c0                	test   %eax,%eax
  404b3c:	0f 85 ea fe ff ff    	jne    404a2c <__intel_cpu_features_init_body+0x46c>
  404b42:	f7 c6 00 00 40 00    	test   $0x400000,%esi
  404b48:	74 15                	je     404b5f <__intel_cpu_features_init_body+0x59f>
  404b4a:	48 89 e0             	mov    %rsp,%rax
  404b4d:	b9 0c 00 00 00       	mov    $0xc,%ecx
  404b52:	e8 f9 10 00 00       	callq  405c50 <__libirc_set_cpu_feature>
  404b57:	85 c0                	test   %eax,%eax
  404b59:	0f 85 cd fe ff ff    	jne    404a2c <__intel_cpu_features_init_body+0x46c>
  404b5f:	f7 c6 00 00 08 00    	test   $0x80000,%esi
  404b65:	74 15                	je     404b7c <__intel_cpu_features_init_body+0x5bc>
  404b67:	48 89 e0             	mov    %rsp,%rax
  404b6a:	b9 0a 00 00 00       	mov    $0xa,%ecx
  404b6f:	e8 dc 10 00 00       	callq  405c50 <__libirc_set_cpu_feature>
  404b74:	85 c0                	test   %eax,%eax
  404b76:	0f 85 b0 fe ff ff    	jne    404a2c <__intel_cpu_features_init_body+0x46c>
  404b7c:	f7 c6 00 00 10 00    	test   $0x100000,%esi
  404b82:	74 15                	je     404b99 <__intel_cpu_features_init_body+0x5d9>
  404b84:	48 89 e0             	mov    %rsp,%rax
  404b87:	b9 0b 00 00 00       	mov    $0xb,%ecx
  404b8c:	e8 bf 10 00 00       	callq  405c50 <__libirc_set_cpu_feature>
  404b91:	85 c0                	test   %eax,%eax
  404b93:	0f 85 93 fe ff ff    	jne    404a2c <__intel_cpu_features_init_body+0x46c>
  404b99:	f7 c6 00 00 80 00    	test   $0x800000,%esi
  404b9f:	74 15                	je     404bb6 <__intel_cpu_features_init_body+0x5f6>
  404ba1:	48 89 e0             	mov    %rsp,%rax
  404ba4:	b9 0d 00 00 00       	mov    $0xd,%ecx
  404ba9:	e8 a2 10 00 00       	callq  405c50 <__libirc_set_cpu_feature>
  404bae:	85 c0                	test   %eax,%eax
  404bb0:	0f 85 76 fe ff ff    	jne    404a2c <__intel_cpu_features_init_body+0x46c>
  404bb6:	40 f6 c6 02          	test   $0x2,%sil
  404bba:	74 15                	je     404bd1 <__intel_cpu_features_init_body+0x611>
  404bbc:	48 89 e0             	mov    %rsp,%rax
  404bbf:	b9 0e 00 00 00       	mov    $0xe,%ecx
  404bc4:	e8 87 10 00 00       	callq  405c50 <__libirc_set_cpu_feature>
  404bc9:	85 c0                	test   %eax,%eax
  404bcb:	0f 85 5b fe ff ff    	jne    404a2c <__intel_cpu_features_init_body+0x46c>
  404bd1:	f7 c6 00 00 00 02    	test   $0x2000000,%esi
  404bd7:	74 15                	je     404bee <__intel_cpu_features_init_body+0x62e>
  404bd9:	48 89 e0             	mov    %rsp,%rax
  404bdc:	b9 0f 00 00 00       	mov    $0xf,%ecx
  404be1:	e8 6a 10 00 00       	callq  405c50 <__libirc_set_cpu_feature>
  404be6:	85 c0                	test   %eax,%eax
  404be8:	0f 85 3e fe ff ff    	jne    404a2c <__intel_cpu_features_init_body+0x46c>
  404bee:	b8 07 00 00 00       	mov    $0x7,%eax
  404bf3:	31 c9                	xor    %ecx,%ecx
  404bf5:	0f a2                	cpuid  
  404bf7:	41 89 c9             	mov    %ecx,%r9d
  404bfa:	41 89 d0             	mov    %edx,%r8d
  404bfd:	41 89 da             	mov    %ebx,%r10d
  404c00:	f7 c3 00 00 00 20    	test   $0x20000000,%ebx
  404c06:	0f 84 1f fb ff ff    	je     40472b <__intel_cpu_features_init_body+0x16b>
  404c0c:	48 89 e0             	mov    %rsp,%rax
  404c0f:	b9 24 00 00 00       	mov    $0x24,%ecx
  404c14:	e8 37 10 00 00       	callq  405c50 <__libirc_set_cpu_feature>
  404c19:	85 c0                	test   %eax,%eax
  404c1b:	0f 85 0b fe ff ff    	jne    404a2c <__intel_cpu_features_init_body+0x46c>
  404c21:	e9 05 fb ff ff       	jmpq   40472b <__intel_cpu_features_init_body+0x16b>
  404c26:	48 89 e0             	mov    %rsp,%rax
  404c29:	b9 01 00 00 00       	mov    $0x1,%ecx
  404c2e:	e8 1d 10 00 00       	callq  405c50 <__libirc_set_cpu_feature>
  404c33:	85 c0                	test   %eax,%eax
  404c35:	0f 85 f1 fd ff ff    	jne    404a2c <__intel_cpu_features_init_body+0x46c>
  404c3b:	b8 19 00 00 00       	mov    $0x19,%eax
  404c40:	31 c9                	xor    %ecx,%ecx
  404c42:	0f a2                	cpuid  
  404c44:	f6 c3 01             	test   $0x1,%bl
  404c47:	74 15                	je     404c5e <__intel_cpu_features_init_body+0x69e>
  404c49:	48 89 e0             	mov    %rsp,%rax
  404c4c:	b9 45 00 00 00       	mov    $0x45,%ecx
  404c51:	e8 fa 0f 00 00       	callq  405c50 <__libirc_set_cpu_feature>
  404c56:	85 c0                	test   %eax,%eax
  404c58:	0f 85 ce fd ff ff    	jne    404a2c <__intel_cpu_features_init_body+0x46c>
  404c5e:	f6 c3 04             	test   $0x4,%bl
  404c61:	0f 84 61 fd ff ff    	je     4049c8 <__intel_cpu_features_init_body+0x408>
  404c67:	48 89 e0             	mov    %rsp,%rax
  404c6a:	b9 46 00 00 00       	mov    $0x46,%ecx
  404c6f:	e8 dc 0f 00 00       	callq  405c50 <__libirc_set_cpu_feature>
  404c74:	85 c0                	test   %eax,%eax
  404c76:	0f 85 b0 fd ff ff    	jne    404a2c <__intel_cpu_features_init_body+0x46c>
  404c7c:	e9 47 fd ff ff       	jmpq   4049c8 <__intel_cpu_features_init_body+0x408>
  404c81:	48 89 e0             	mov    %rsp,%rax
  404c84:	b9 01 00 00 00       	mov    $0x1,%ecx
  404c89:	e8 c2 0f 00 00       	callq  405c50 <__libirc_set_cpu_feature>
  404c8e:	85 c0                	test   %eax,%eax
  404c90:	0f 85 96 fd ff ff    	jne    404a2c <__intel_cpu_features_init_body+0x46c>
  404c96:	31 c9                	xor    %ecx,%ecx
  404c98:	0f 01 d0             	xgetbv 
  404c9b:	89 c7                	mov    %eax,%edi
  404c9d:	f7 d7                	not    %edi
  404c9f:	f7 c7 00 00 06 00    	test   $0x60000,%edi
  404ca5:	75 6f                	jne    404d16 <__intel_cpu_features_init_body+0x756>
  404ca7:	48 89 e0             	mov    %rsp,%rax
  404caa:	b9 01 00 00 00       	mov    $0x1,%ecx
  404caf:	e8 9c 0f 00 00       	callq  405c50 <__libirc_set_cpu_feature>
  404cb4:	85 c0                	test   %eax,%eax
  404cb6:	0f 85 70 fd ff ff    	jne    404a2c <__intel_cpu_features_init_body+0x46c>
  404cbc:	41 f7 c0 00 00 00 01 	test   $0x1000000,%r8d
  404cc3:	74 15                	je     404cda <__intel_cpu_features_init_body+0x71a>
  404cc5:	48 89 e0             	mov    %rsp,%rax
  404cc8:	b9 42 00 00 00       	mov    $0x42,%ecx
  404ccd:	e8 7e 0f 00 00       	callq  405c50 <__libirc_set_cpu_feature>
  404cd2:	85 c0                	test   %eax,%eax
  404cd4:	0f 85 52 fd ff ff    	jne    404a2c <__intel_cpu_features_init_body+0x46c>
  404cda:	41 f7 c0 00 00 00 02 	test   $0x2000000,%r8d
  404ce1:	74 15                	je     404cf8 <__intel_cpu_features_init_body+0x738>
  404ce3:	48 89 e0             	mov    %rsp,%rax
  404ce6:	b9 43 00 00 00       	mov    $0x43,%ecx
  404ceb:	e8 60 0f 00 00       	callq  405c50 <__libirc_set_cpu_feature>
  404cf0:	85 c0                	test   %eax,%eax
  404cf2:	0f 85 34 fd ff ff    	jne    404a2c <__intel_cpu_features_init_body+0x46c>
  404cf8:	41 f7 c0 00 00 40 00 	test   $0x400000,%r8d
  404cff:	74 15                	je     404d16 <__intel_cpu_features_init_body+0x756>
  404d01:	48 89 e0             	mov    %rsp,%rax
  404d04:	b9 44 00 00 00       	mov    $0x44,%ecx
  404d09:	e8 42 0f 00 00       	callq  405c50 <__libirc_set_cpu_feature>
  404d0e:	85 c0                	test   %eax,%eax
  404d10:	0f 85 16 fd ff ff    	jne    404a2c <__intel_cpu_features_init_body+0x46c>
  404d16:	40 f6 c7 06          	test   $0x6,%dil
  404d1a:	0f 85 b4 fc ff ff    	jne    4049d4 <__intel_cpu_features_init_body+0x414>
  404d20:	48 89 e0             	mov    %rsp,%rax
  404d23:	b9 01 00 00 00       	mov    $0x1,%ecx
  404d28:	e8 23 0f 00 00       	callq  405c50 <__libirc_set_cpu_feature>
  404d2d:	85 c0                	test   %eax,%eax
  404d2f:	0f 85 f7 fc ff ff    	jne    404a2c <__intel_cpu_features_init_body+0x46c>
  404d35:	f7 c6 00 00 00 10    	test   $0x10000000,%esi
  404d3b:	0f 85 ec 02 00 00    	jne    40502d <__intel_cpu_features_init_body+0xa6d>
  404d41:	f7 c6 00 00 00 20    	test   $0x20000000,%esi
  404d47:	74 15                	je     404d5e <__intel_cpu_features_init_body+0x79e>
  404d49:	48 89 e0             	mov    %rsp,%rax
  404d4c:	b9 11 00 00 00       	mov    $0x11,%ecx
  404d51:	e8 fa 0e 00 00       	callq  405c50 <__libirc_set_cpu_feature>
  404d56:	85 c0                	test   %eax,%eax
  404d58:	0f 85 ce fc ff ff    	jne    404a2c <__intel_cpu_features_init_body+0x46c>
  404d5e:	41 f6 c2 20          	test   $0x20,%r10b
  404d62:	74 15                	je     404d79 <__intel_cpu_features_init_body+0x7b9>
  404d64:	48 89 e0             	mov    %rsp,%rax
  404d67:	b9 18 00 00 00       	mov    $0x18,%ecx
  404d6c:	e8 df 0e 00 00       	callq  405c50 <__libirc_set_cpu_feature>
  404d71:	85 c0                	test   %eax,%eax
  404d73:	0f 85 b3 fc ff ff    	jne    404a2c <__intel_cpu_features_init_body+0x46c>
  404d79:	f7 c6 00 10 00 00    	test   $0x1000,%esi
  404d7f:	74 15                	je     404d96 <__intel_cpu_features_init_body+0x7d6>
  404d81:	48 89 e0             	mov    %rsp,%rax
  404d84:	b9 13 00 00 00       	mov    $0x13,%ecx
  404d89:	e8 c2 0e 00 00       	callq  405c50 <__libirc_set_cpu_feature>
  404d8e:	85 c0                	test   %eax,%eax
  404d90:	0f 85 96 fc ff ff    	jne    404a2c <__intel_cpu_features_init_body+0x46c>
  404d96:	40 f6 c7 18          	test   $0x18,%dil
  404d9a:	75 33                	jne    404dcf <__intel_cpu_features_init_body+0x80f>
  404d9c:	48 89 e0             	mov    %rsp,%rax
  404d9f:	b9 01 00 00 00       	mov    $0x1,%ecx
  404da4:	e8 a7 0e 00 00       	callq  405c50 <__libirc_set_cpu_feature>
  404da9:	85 c0                	test   %eax,%eax
  404dab:	0f 85 7b fc ff ff    	jne    404a2c <__intel_cpu_features_init_body+0x46c>
  404db1:	41 f7 c2 00 40 00 00 	test   $0x4000,%r10d
  404db8:	74 15                	je     404dcf <__intel_cpu_features_init_body+0x80f>
  404dba:	48 89 e0             	mov    %rsp,%rax
  404dbd:	b9 25 00 00 00       	mov    $0x25,%ecx
  404dc2:	e8 89 0e 00 00       	callq  405c50 <__libirc_set_cpu_feature>
  404dc7:	85 c0                	test   %eax,%eax
  404dc9:	0f 85 5d fc ff ff    	jne    404a2c <__intel_cpu_features_init_body+0x46c>
  404dcf:	b8 07 00 00 00       	mov    $0x7,%eax
  404dd4:	b9 01 00 00 00       	mov    $0x1,%ecx
  404dd9:	0f a2                	cpuid  
  404ddb:	89 c2                	mov    %eax,%edx
  404ddd:	f6 c2 10             	test   $0x10,%dl
  404de0:	74 15                	je     404df7 <__intel_cpu_features_init_body+0x837>
  404de2:	48 89 e0             	mov    %rsp,%rax
  404de5:	b9 41 00 00 00       	mov    $0x41,%ecx
  404dea:	e8 61 0e 00 00       	callq  405c50 <__libirc_set_cpu_feature>
  404def:	85 c0                	test   %eax,%eax
  404df1:	0f 85 35 fc ff ff    	jne    404a2c <__intel_cpu_features_init_body+0x46c>
  404df7:	40 f6 c7 e0          	test   $0xe0,%dil
  404dfb:	0f 85 d3 fb ff ff    	jne    4049d4 <__intel_cpu_features_init_body+0x414>
  404e01:	48 89 e0             	mov    %rsp,%rax
  404e04:	b9 01 00 00 00       	mov    $0x1,%ecx
  404e09:	e8 42 0e 00 00       	callq  405c50 <__libirc_set_cpu_feature>
  404e0e:	85 c0                	test   %eax,%eax
  404e10:	0f 85 16 fc ff ff    	jne    404a2c <__intel_cpu_features_init_body+0x46c>
  404e16:	41 f7 c2 00 00 01 00 	test   $0x10000,%r10d
  404e1d:	74 15                	je     404e34 <__intel_cpu_features_init_body+0x874>
  404e1f:	48 89 e0             	mov    %rsp,%rax
  404e22:	b9 19 00 00 00       	mov    $0x19,%ecx
  404e27:	e8 24 0e 00 00       	callq  405c50 <__libirc_set_cpu_feature>
  404e2c:	85 c0                	test   %eax,%eax
  404e2e:	0f 85 f8 fb ff ff    	jne    404a2c <__intel_cpu_features_init_body+0x46c>
  404e34:	41 f7 c2 00 00 00 10 	test   $0x10000000,%r10d
  404e3b:	74 15                	je     404e52 <__intel_cpu_features_init_body+0x892>
  404e3d:	48 89 e0             	mov    %rsp,%rax
  404e40:	b9 23 00 00 00       	mov    $0x23,%ecx
  404e45:	e8 06 0e 00 00       	callq  405c50 <__libirc_set_cpu_feature>
  404e4a:	85 c0                	test   %eax,%eax
  404e4c:	0f 85 da fb ff ff    	jne    404a2c <__intel_cpu_features_init_body+0x46c>
  404e52:	41 f7 c2 00 00 00 08 	test   $0x8000000,%r10d
  404e59:	74 15                	je     404e70 <__intel_cpu_features_init_body+0x8b0>
  404e5b:	48 89 e0             	mov    %rsp,%rax
  404e5e:	b9 21 00 00 00       	mov    $0x21,%ecx
  404e63:	e8 e8 0d 00 00       	callq  405c50 <__libirc_set_cpu_feature>
  404e68:	85 c0                	test   %eax,%eax
  404e6a:	0f 85 bc fb ff ff    	jne    404a2c <__intel_cpu_features_init_body+0x46c>
  404e70:	41 f7 c2 00 00 00 04 	test   $0x4000000,%r10d
  404e77:	74 15                	je     404e8e <__intel_cpu_features_init_body+0x8ce>
  404e79:	48 89 e0             	mov    %rsp,%rax
  404e7c:	b9 22 00 00 00       	mov    $0x22,%ecx
  404e81:	e8 ca 0d 00 00       	callq  405c50 <__libirc_set_cpu_feature>
  404e86:	85 c0                	test   %eax,%eax
  404e88:	0f 85 9e fb ff ff    	jne    404a2c <__intel_cpu_features_init_body+0x46c>
  404e8e:	41 f7 c2 00 00 02 00 	test   $0x20000,%r10d
  404e95:	74 15                	je     404eac <__intel_cpu_features_init_body+0x8ec>
  404e97:	48 89 e0             	mov    %rsp,%rax
  404e9a:	b9 1a 00 00 00       	mov    $0x1a,%ecx
  404e9f:	e8 ac 0d 00 00       	callq  405c50 <__libirc_set_cpu_feature>
  404ea4:	85 c0                	test   %eax,%eax
  404ea6:	0f 85 80 fb ff ff    	jne    404a2c <__intel_cpu_features_init_body+0x46c>
  404eac:	41 f7 c2 00 00 00 40 	test   $0x40000000,%r10d
  404eb3:	74 15                	je     404eca <__intel_cpu_features_init_body+0x90a>
  404eb5:	48 89 e0             	mov    %rsp,%rax
  404eb8:	b9 26 00 00 00       	mov    $0x26,%ecx
  404ebd:	e8 8e 0d 00 00       	callq  405c50 <__libirc_set_cpu_feature>
  404ec2:	85 c0                	test   %eax,%eax
  404ec4:	0f 85 62 fb ff ff    	jne    404a2c <__intel_cpu_features_init_body+0x46c>
  404eca:	45 85 d2             	test   %r10d,%r10d
  404ecd:	0f 88 b4 01 00 00    	js     405087 <__intel_cpu_features_init_body+0xac7>
  404ed3:	41 f7 c2 00 00 20 00 	test   $0x200000,%r10d
  404eda:	74 15                	je     404ef1 <__intel_cpu_features_init_body+0x931>
  404edc:	48 89 e0             	mov    %rsp,%rax
  404edf:	b9 1f 00 00 00       	mov    $0x1f,%ecx
  404ee4:	e8 67 0d 00 00       	callq  405c50 <__libirc_set_cpu_feature>
  404ee9:	85 c0                	test   %eax,%eax
  404eeb:	0f 85 3b fb ff ff    	jne    404a2c <__intel_cpu_features_init_body+0x46c>
  404ef1:	41 f6 c1 02          	test   $0x2,%r9b
  404ef5:	74 15                	je     404f0c <__intel_cpu_features_init_body+0x94c>
  404ef7:	48 89 e0             	mov    %rsp,%rax
  404efa:	b9 28 00 00 00       	mov    $0x28,%ecx
  404eff:	e8 4c 0d 00 00       	callq  405c50 <__libirc_set_cpu_feature>
  404f04:	85 c0                	test   %eax,%eax
  404f06:	0f 85 20 fb ff ff    	jne    404a2c <__intel_cpu_features_init_body+0x46c>
  404f0c:	41 f7 c1 00 40 00 00 	test   $0x4000,%r9d
  404f13:	74 15                	je     404f2a <__intel_cpu_features_init_body+0x96a>
  404f15:	48 89 e0             	mov    %rsp,%rax
  404f18:	b9 2b 00 00 00       	mov    $0x2b,%ecx
  404f1d:	e8 2e 0d 00 00       	callq  405c50 <__libirc_set_cpu_feature>
  404f22:	85 c0                	test   %eax,%eax
  404f24:	0f 85 02 fb ff ff    	jne    404a2c <__intel_cpu_features_init_body+0x46c>
  404f2a:	41 f6 c0 04          	test   $0x4,%r8b
  404f2e:	74 15                	je     404f45 <__intel_cpu_features_init_body+0x985>
  404f30:	48 89 e0             	mov    %rsp,%rax
  404f33:	b9 2a 00 00 00       	mov    $0x2a,%ecx
  404f38:	e8 13 0d 00 00       	callq  405c50 <__libirc_set_cpu_feature>
  404f3d:	85 c0                	test   %eax,%eax
  404f3f:	0f 85 e7 fa ff ff    	jne    404a2c <__intel_cpu_features_init_body+0x46c>
  404f45:	41 f6 c0 08          	test   $0x8,%r8b
  404f49:	74 15                	je     404f60 <__intel_cpu_features_init_body+0x9a0>
  404f4b:	48 89 e0             	mov    %rsp,%rax
  404f4e:	b9 29 00 00 00       	mov    $0x29,%ecx
  404f53:	e8 f8 0c 00 00       	callq  405c50 <__libirc_set_cpu_feature>
  404f58:	85 c0                	test   %eax,%eax
  404f5a:	0f 85 cc fa ff ff    	jne    404a2c <__intel_cpu_features_init_body+0x46c>
  404f60:	41 f7 c1 00 10 00 00 	test   $0x1000,%r9d
  404f67:	74 15                	je     404f7e <__intel_cpu_features_init_body+0x9be>
  404f69:	48 89 e0             	mov    %rsp,%rax
  404f6c:	b9 2c 00 00 00       	mov    $0x2c,%ecx
  404f71:	e8 da 0c 00 00       	callq  405c50 <__libirc_set_cpu_feature>
  404f76:	85 c0                	test   %eax,%eax
  404f78:	0f 85 ae fa ff ff    	jne    404a2c <__intel_cpu_features_init_body+0x46c>
  404f7e:	41 f6 c1 40          	test   $0x40,%r9b
  404f82:	74 15                	je     404f99 <__intel_cpu_features_init_body+0x9d9>
  404f84:	48 89 e0             	mov    %rsp,%rax
  404f87:	b9 2d 00 00 00       	mov    $0x2d,%ecx
  404f8c:	e8 bf 0c 00 00       	callq  405c50 <__libirc_set_cpu_feature>
  404f91:	85 c0                	test   %eax,%eax
  404f93:	0f 85 93 fa ff ff    	jne    404a2c <__intel_cpu_features_init_body+0x46c>
  404f99:	41 f7 c1 00 08 00 00 	test   $0x800,%r9d
  404fa0:	74 15                	je     404fb7 <__intel_cpu_features_init_body+0x9f7>
  404fa2:	48 89 e0             	mov    %rsp,%rax
  404fa5:	b9 31 00 00 00       	mov    $0x31,%ecx
  404faa:	e8 a1 0c 00 00       	callq  405c50 <__libirc_set_cpu_feature>
  404faf:	85 c0                	test   %eax,%eax
  404fb1:	0f 85 75 fa ff ff    	jne    404a2c <__intel_cpu_features_init_body+0x46c>
  404fb7:	f6 c2 20             	test   $0x20,%dl
  404fba:	74 15                	je     404fd1 <__intel_cpu_features_init_body+0xa11>
  404fbc:	48 89 e0             	mov    %rsp,%rax
  404fbf:	b9 3f 00 00 00       	mov    $0x3f,%ecx
  404fc4:	e8 87 0c 00 00       	callq  405c50 <__libirc_set_cpu_feature>
  404fc9:	85 c0                	test   %eax,%eax
  404fcb:	0f 85 5b fa ff ff    	jne    404a2c <__intel_cpu_features_init_body+0x46c>
  404fd1:	41 f7 c0 00 00 80 00 	test   $0x800000,%r8d
  404fd8:	74 15                	je     404fef <__intel_cpu_features_init_body+0xa2f>
  404fda:	48 89 e0             	mov    %rsp,%rax
  404fdd:	b9 3a 00 00 00       	mov    $0x3a,%ecx
  404fe2:	e8 69 0c 00 00       	callq  405c50 <__libirc_set_cpu_feature>
  404fe7:	85 c0                	test   %eax,%eax
  404fe9:	0f 85 3d fa ff ff    	jne    404a2c <__intel_cpu_features_init_body+0x46c>
  404fef:	41 f7 c0 00 01 00 00 	test   $0x100,%r8d
  404ff6:	0f 84 d8 f9 ff ff    	je     4049d4 <__intel_cpu_features_init_body+0x414>
  404ffc:	48 89 e0             	mov    %rsp,%rax
  404fff:	b9 39 00 00 00       	mov    $0x39,%ecx
  405004:	e8 47 0c 00 00       	callq  405c50 <__libirc_set_cpu_feature>
  405009:	85 c0                	test   %eax,%eax
  40500b:	0f 85 1b fa ff ff    	jne    404a2c <__intel_cpu_features_init_body+0x46c>
  405011:	e9 be f9 ff ff       	jmpq   4049d4 <__intel_cpu_features_init_body+0x414>
  405016:	48 c7 c1 20 e4 40 00 	mov    $0x40e420,%rcx
  40501d:	48 89 41 08          	mov    %rax,0x8(%rcx)
  405021:	48 8b 04 24          	mov    (%rsp),%rax
  405025:	48 89 01             	mov    %rax,(%rcx)
  405028:	e9 fd f9 ff ff       	jmpq   404a2a <__intel_cpu_features_init_body+0x46a>
  40502d:	48 89 e0             	mov    %rsp,%rax
  405030:	b9 10 00 00 00       	mov    $0x10,%ecx
  405035:	e8 16 0c 00 00       	callq  405c50 <__libirc_set_cpu_feature>
  40503a:	85 c0                	test   %eax,%eax
  40503c:	0f 85 ea f9 ff ff    	jne    404a2c <__intel_cpu_features_init_body+0x46c>
  405042:	41 f7 c1 00 02 00 00 	test   $0x200,%r9d
  405049:	74 15                	je     405060 <__intel_cpu_features_init_body+0xaa0>
  40504b:	48 89 e0             	mov    %rsp,%rax
  40504e:	b9 2f 00 00 00       	mov    $0x2f,%ecx
  405053:	e8 f8 0b 00 00       	callq  405c50 <__libirc_set_cpu_feature>
  405058:	85 c0                	test   %eax,%eax
  40505a:	0f 85 cc f9 ff ff    	jne    404a2c <__intel_cpu_features_init_body+0x46c>
  405060:	41 f7 c1 00 04 00 00 	test   $0x400,%r9d
  405067:	0f 84 d4 fc ff ff    	je     404d41 <__intel_cpu_features_init_body+0x781>
  40506d:	48 89 e0             	mov    %rsp,%rax
  405070:	b9 30 00 00 00       	mov    $0x30,%ecx
  405075:	e8 d6 0b 00 00       	callq  405c50 <__libirc_set_cpu_feature>
  40507a:	85 c0                	test   %eax,%eax
  40507c:	0f 85 aa f9 ff ff    	jne    404a2c <__intel_cpu_features_init_body+0x46c>
  405082:	e9 ba fc ff ff       	jmpq   404d41 <__intel_cpu_features_init_body+0x781>
  405087:	48 89 e0             	mov    %rsp,%rax
  40508a:	b9 27 00 00 00       	mov    $0x27,%ecx
  40508f:	e8 bc 0b 00 00       	callq  405c50 <__libirc_set_cpu_feature>
  405094:	85 c0                	test   %eax,%eax
  405096:	0f 85 90 f9 ff ff    	jne    404a2c <__intel_cpu_features_init_body+0x46c>
  40509c:	e9 32 fe ff ff       	jmpq   404ed3 <__intel_cpu_features_init_body+0x913>
  4050a1:	66 66 66 66 66 66 2e 	data16 data16 data16 data16 data16 nopw %cs:0x0(%rax,%rax,1)
  4050a8:	0f 1f 84 00 00 00 00 
  4050af:	00 

00000000004050b0 <__intel_cpu_features_init_x>:
  4050b0:	f3 0f 1e fa          	endbr64 
  4050b4:	50                   	push   %rax
  4050b5:	31 c0                	xor    %eax,%eax
  4050b7:	e8 04 f5 ff ff       	callq  4045c0 <__intel_cpu_features_init_body>
  4050bc:	48 83 c4 08          	add    $0x8,%rsp
  4050c0:	c3                   	retq   
  4050c1:	66 66 66 66 66 66 2e 	data16 data16 data16 data16 data16 nopw %cs:0x0(%rax,%rax,1)
  4050c8:	0f 1f 84 00 00 00 00 
  4050cf:	00 

00000000004050d0 <__libirc_get_feature_name>:
  4050d0:	f3 0f 1e fa          	endbr64 
  4050d4:	50                   	push   %rax
  4050d5:	80 3d 54 93 00 00 00 	cmpb   $0x0,0x9354(%rip)        # 40e430 <__libirc_isa_info_initialized>
  4050dc:	75 05                	jne    4050e3 <__libirc_get_feature_name+0x13>
  4050de:	e8 1d 00 00 00       	callq  405100 <__libirc_isa_init_once>
  4050e3:	89 f8                	mov    %edi,%eax
  4050e5:	48 8d 04 40          	lea    (%rax,%rax,2),%rax
  4050e9:	48 8d 0d 50 93 00 00 	lea    0x9350(%rip),%rcx        # 40e440 <proc_info_features>
  4050f0:	48 8b 04 c1          	mov    (%rcx,%rax,8),%rax
  4050f4:	59                   	pop    %rcx
  4050f5:	c3                   	retq   
  4050f6:	66 2e 0f 1f 84 00 00 	nopw   %cs:0x0(%rax,%rax,1)
  4050fd:	00 00 00 

0000000000405100 <__libirc_isa_init_once>:
  405100:	51                   	push   %rcx
  405101:	80 3d 28 93 00 00 00 	cmpb   $0x0,0x9328(%rip)        # 40e430 <__libirc_isa_info_initialized>
  405108:	0f 85 aa 0a 00 00    	jne    405bb8 <__libirc_isa_init_once+0xab8>
  40510e:	b8 c8 00 00 00       	mov    $0xc8,%eax
  405113:	48 8d 0d 26 93 00 00 	lea    0x9326(%rip),%rcx        # 40e440 <proc_info_features>
  40511a:	66 0f 1f 44 00 00    	nopw   0x0(%rax,%rax,1)
  405120:	c7 84 08 58 ff ff ff 	movl   $0xffffffff,-0xa8(%rax,%rcx,1)
  405127:	ff ff ff ff 
  40512b:	c7 84 08 70 ff ff ff 	movl   $0xffffffff,-0x90(%rax,%rcx,1)
  405132:	ff ff ff ff 
  405136:	c7 44 08 88 ff ff ff 	movl   $0xffffffff,-0x78(%rax,%rcx,1)
  40513d:	ff 
  40513e:	c7 44 08 a0 ff ff ff 	movl   $0xffffffff,-0x60(%rax,%rcx,1)
  405145:	ff 
  405146:	c7 44 08 b8 ff ff ff 	movl   $0xffffffff,-0x48(%rax,%rcx,1)
  40514d:	ff 
  40514e:	c7 44 08 d0 ff ff ff 	movl   $0xffffffff,-0x30(%rax,%rcx,1)
  405155:	ff 
  405156:	c7 44 08 e8 ff ff ff 	movl   $0xffffffff,-0x18(%rax,%rcx,1)
  40515d:	ff 
  40515e:	c7 04 08 ff ff ff ff 	movl   $0xffffffff,(%rax,%rcx,1)
  405165:	48 05 c0 00 00 00    	add    $0xc0,%rax
  40516b:	48 3d c8 06 00 00    	cmp    $0x6c8,%rax
  405171:	75 ad                	jne    405120 <__libirc_isa_init_once+0x20>
  405173:	c7 05 e3 98 00 00 ff 	movl   $0xffffffff,0x98e3(%rip)        # 40ea60 <proc_info_features+0x620>
  40517a:	ff ff ff 
  40517d:	c7 05 f1 98 00 00 ff 	movl   $0xffffffff,0x98f1(%rip)        # 40ea78 <proc_info_features+0x638>
  405184:	ff ff ff 
  405187:	c7 05 ff 98 00 00 ff 	movl   $0xffffffff,0x98ff(%rip)        # 40ea90 <proc_info_features+0x650>
  40518e:	ff ff ff 
  405191:	c7 05 0d 99 00 00 ff 	movl   $0xffffffff,0x990d(%rip)        # 40eaa8 <proc_info_features+0x668>
  405198:	ff ff ff 
  40519b:	c7 05 1b 99 00 00 ff 	movl   $0xffffffff,0x991b(%rip)        # 40eac0 <proc_info_features+0x680>
  4051a2:	ff ff ff 
  4051a5:	c7 05 29 99 00 00 ff 	movl   $0xffffffff,0x9929(%rip)        # 40ead8 <proc_info_features+0x698>
  4051ac:	ff ff ff 
  4051af:	48 8d 05 53 4a 00 00 	lea    0x4a53(%rip),%rax        # 409c09 <__libm_error_support.__libm_errno_table+0x1d>
  4051b6:	48 89 05 9b 92 00 00 	mov    %rax,0x929b(%rip)        # 40e458 <proc_info_features+0x18>
  4051bd:	c7 05 99 92 00 00 00 	movl   $0x0,0x9299(%rip)        # 40e460 <proc_info_features+0x20>
  4051c4:	00 00 00 
  4051c7:	48 8d 05 48 4a 00 00 	lea    0x4a48(%rip),%rax        # 409c16 <__libm_error_support.__libm_errno_table+0x2a>
  4051ce:	48 89 05 9b 92 00 00 	mov    %rax,0x929b(%rip)        # 40e470 <proc_info_features+0x30>
  4051d5:	c7 05 99 92 00 00 01 	movl   $0x1,0x9299(%rip)        # 40e478 <proc_info_features+0x38>
  4051dc:	00 00 00 
  4051df:	48 8d 05 34 4a 00 00 	lea    0x4a34(%rip),%rax        # 409c1a <__libm_error_support.__libm_errno_table+0x2e>
  4051e6:	48 89 05 9b 92 00 00 	mov    %rax,0x929b(%rip)        # 40e488 <proc_info_features+0x48>
  4051ed:	c7 05 99 92 00 00 02 	movl   $0x2,0x9299(%rip)        # 40e490 <proc_info_features+0x50>
  4051f4:	00 00 00 
  4051f7:	c7 05 a7 92 00 00 03 	movl   $0x3,0x92a7(%rip)        # 40e4a8 <proc_info_features+0x68>
  4051fe:	00 00 00 
  405201:	48 8d 05 17 4a 00 00 	lea    0x4a17(%rip),%rax        # 409c1f <__libm_error_support.__libm_errno_table+0x33>
  405208:	48 89 05 a1 92 00 00 	mov    %rax,0x92a1(%rip)        # 40e4b0 <proc_info_features+0x70>
  40520f:	48 8d 05 0d 4a 00 00 	lea    0x4a0d(%rip),%rax        # 409c23 <__libm_error_support.__libm_errno_table+0x37>
  405216:	48 89 05 83 92 00 00 	mov    %rax,0x9283(%rip)        # 40e4a0 <proc_info_features+0x60>
  40521d:	48 8d 05 03 4a 00 00 	lea    0x4a03(%rip),%rax        # 409c27 <__libm_error_support.__libm_errno_table+0x3b>
  405224:	48 89 05 8d 92 00 00 	mov    %rax,0x928d(%rip)        # 40e4b8 <proc_info_features+0x78>
  40522b:	c7 05 8b 92 00 00 04 	movl   $0x4,0x928b(%rip)        # 40e4c0 <proc_info_features+0x80>
  405232:	00 00 00 
  405235:	c7 05 99 92 00 00 05 	movl   $0x5,0x9299(%rip)        # 40e4d8 <proc_info_features+0x98>
  40523c:	00 00 00 
  40523f:	48 8d 05 e8 49 00 00 	lea    0x49e8(%rip),%rax        # 409c2e <__libm_error_support.__libm_errno_table+0x42>
  405246:	48 89 05 93 92 00 00 	mov    %rax,0x9293(%rip)        # 40e4e0 <proc_info_features+0xa0>
  40524d:	48 8d 05 de 49 00 00 	lea    0x49de(%rip),%rax        # 409c32 <__libm_error_support.__libm_errno_table+0x46>
  405254:	48 89 05 75 92 00 00 	mov    %rax,0x9275(%rip)        # 40e4d0 <proc_info_features+0x90>
  40525b:	c7 05 8b 92 00 00 06 	movl   $0x6,0x928b(%rip)        # 40e4f0 <proc_info_features+0xb0>
  405262:	00 00 00 
  405265:	48 8d 05 ca 49 00 00 	lea    0x49ca(%rip),%rax        # 409c36 <__libm_error_support.__libm_errno_table+0x4a>
  40526c:	48 89 05 85 92 00 00 	mov    %rax,0x9285(%rip)        # 40e4f8 <proc_info_features+0xb8>
  405273:	48 8d 05 c1 49 00 00 	lea    0x49c1(%rip),%rax        # 409c3b <__libm_error_support.__libm_errno_table+0x4f>
  40527a:	48 89 05 67 92 00 00 	mov    %rax,0x9267(%rip)        # 40e4e8 <proc_info_features+0xa8>
  405281:	c7 05 7d 92 00 00 07 	movl   $0x7,0x927d(%rip)        # 40e508 <proc_info_features+0xc8>
  405288:	00 00 00 
  40528b:	48 8d 05 af 49 00 00 	lea    0x49af(%rip),%rax        # 409c41 <__libm_error_support.__libm_errno_table+0x55>
  405292:	48 89 05 77 92 00 00 	mov    %rax,0x9277(%rip)        # 40e510 <proc_info_features+0xd0>
  405299:	48 8d 05 a7 49 00 00 	lea    0x49a7(%rip),%rax        # 409c47 <__libm_error_support.__libm_errno_table+0x5b>
  4052a0:	48 89 05 59 92 00 00 	mov    %rax,0x9259(%rip)        # 40e500 <proc_info_features+0xc0>
  4052a7:	c7 05 6f 92 00 00 08 	movl   $0x8,0x926f(%rip)        # 40e520 <proc_info_features+0xe0>
  4052ae:	00 00 00 
  4052b1:	48 8d 05 88 49 00 00 	lea    0x4988(%rip),%rax        # 409c40 <__libm_error_support.__libm_errno_table+0x54>
  4052b8:	48 89 05 69 92 00 00 	mov    %rax,0x9269(%rip)        # 40e528 <proc_info_features+0xe8>
  4052bf:	48 8d 05 80 49 00 00 	lea    0x4980(%rip),%rax        # 409c46 <__libm_error_support.__libm_errno_table+0x5a>
  4052c6:	48 89 05 4b 92 00 00 	mov    %rax,0x924b(%rip)        # 40e518 <proc_info_features+0xd8>
  4052cd:	c7 05 61 92 00 00 09 	movl   $0x9,0x9261(%rip)        # 40e538 <proc_info_features+0xf8>
  4052d4:	00 00 00 
  4052d7:	48 8d 05 6e 49 00 00 	lea    0x496e(%rip),%rax        # 409c4c <__libm_error_support.__libm_errno_table+0x60>
  4052de:	48 89 05 5b 92 00 00 	mov    %rax,0x925b(%rip)        # 40e540 <proc_info_features+0x100>
  4052e5:	48 8d 05 67 49 00 00 	lea    0x4967(%rip),%rax        # 409c53 <__libm_error_support.__libm_errno_table+0x67>
  4052ec:	48 89 05 3d 92 00 00 	mov    %rax,0x923d(%rip)        # 40e530 <proc_info_features+0xf0>
  4052f3:	c7 05 53 92 00 00 0a 	movl   $0xa,0x9253(%rip)        # 40e550 <proc_info_features+0x110>
  4052fa:	00 00 00 
  4052fd:	48 8d 05 56 49 00 00 	lea    0x4956(%rip),%rax        # 409c5a <__libm_error_support.__libm_errno_table+0x6e>
  405304:	48 89 05 4d 92 00 00 	mov    %rax,0x924d(%rip)        # 40e558 <proc_info_features+0x118>
  40530b:	48 8d 05 4d 49 00 00 	lea    0x494d(%rip),%rax        # 409c5f <__libm_error_support.__libm_errno_table+0x73>
  405312:	48 89 05 2f 92 00 00 	mov    %rax,0x922f(%rip)        # 40e548 <proc_info_features+0x108>
  405319:	c7 05 45 92 00 00 0b 	movl   $0xb,0x9245(%rip)        # 40e568 <proc_info_features+0x128>
  405320:	00 00 00 
  405323:	48 8d 05 3c 49 00 00 	lea    0x493c(%rip),%rax        # 409c66 <__libm_error_support.__libm_errno_table+0x7a>
  40532a:	48 89 05 3f 92 00 00 	mov    %rax,0x923f(%rip)        # 40e570 <proc_info_features+0x130>
  405331:	48 8d 05 34 49 00 00 	lea    0x4934(%rip),%rax        # 409c6c <__libm_error_support.__libm_errno_table+0x80>
  405338:	48 89 05 21 92 00 00 	mov    %rax,0x9221(%rip)        # 40e560 <proc_info_features+0x120>
  40533f:	c7 05 37 92 00 00 0c 	movl   $0xc,0x9237(%rip)        # 40e580 <proc_info_features+0x140>
  405346:	00 00 00 
  405349:	48 8d 05 22 49 00 00 	lea    0x4922(%rip),%rax        # 409c72 <__libm_error_support.__libm_errno_table+0x86>
  405350:	48 89 05 31 92 00 00 	mov    %rax,0x9231(%rip)        # 40e588 <proc_info_features+0x148>
  405357:	48 8d 05 1b 49 00 00 	lea    0x491b(%rip),%rax        # 409c79 <__libm_error_support.__libm_errno_table+0x8d>
  40535e:	48 89 05 13 92 00 00 	mov    %rax,0x9213(%rip)        # 40e578 <proc_info_features+0x138>
  405365:	c7 05 29 92 00 00 0d 	movl   $0xd,0x9229(%rip)        # 40e598 <proc_info_features+0x158>
  40536c:	00 00 00 
  40536f:	48 8d 05 0a 49 00 00 	lea    0x490a(%rip),%rax        # 409c80 <__libm_error_support.__libm_errno_table+0x94>
  405376:	48 89 05 23 92 00 00 	mov    %rax,0x9223(%rip)        # 40e5a0 <proc_info_features+0x160>
  40537d:	48 8d 05 dc 4a 00 00 	lea    0x4adc(%rip),%rax        # 409e60 <__libm_error_support.__libm_errno_table+0x274>
  405384:	48 89 05 05 92 00 00 	mov    %rax,0x9205(%rip)        # 40e590 <proc_info_features+0x150>
  40538b:	c7 05 1b 92 00 00 0e 	movl   $0xe,0x921b(%rip)        # 40e5b0 <proc_info_features+0x170>
  405392:	00 00 00 
  405395:	48 8d 05 af 4a 00 00 	lea    0x4aaf(%rip),%rax        # 409e4b <__libm_error_support.__libm_errno_table+0x25f>
  40539c:	48 89 05 15 92 00 00 	mov    %rax,0x9215(%rip)        # 40e5b8 <proc_info_features+0x178>
  4053a3:	48 8d 05 a6 4a 00 00 	lea    0x4aa6(%rip),%rax        # 409e50 <__libm_error_support.__libm_errno_table+0x264>
  4053aa:	48 89 05 f7 91 00 00 	mov    %rax,0x91f7(%rip)        # 40e5a8 <proc_info_features+0x168>
  4053b1:	c7 05 0d 92 00 00 10 	movl   $0x10,0x920d(%rip)        # 40e5c8 <proc_info_features+0x188>
  4053b8:	00 00 00 
  4053bb:	48 8d 05 c5 48 00 00 	lea    0x48c5(%rip),%rax        # 409c87 <__libm_error_support.__libm_errno_table+0x9b>
  4053c2:	48 89 05 07 92 00 00 	mov    %rax,0x9207(%rip)        # 40e5d0 <proc_info_features+0x190>
  4053c9:	48 8d 05 bb 48 00 00 	lea    0x48bb(%rip),%rax        # 409c8b <__libm_error_support.__libm_errno_table+0x9f>
  4053d0:	48 89 05 e9 91 00 00 	mov    %rax,0x91e9(%rip)        # 40e5c0 <proc_info_features+0x180>
  4053d7:	c7 05 ff 91 00 00 0f 	movl   $0xf,0x91ff(%rip)        # 40e5e0 <proc_info_features+0x1a0>
  4053de:	00 00 00 
  4053e1:	48 8d 05 a7 48 00 00 	lea    0x48a7(%rip),%rax        # 409c8f <__libm_error_support.__libm_errno_table+0xa3>
  4053e8:	48 89 05 f9 91 00 00 	mov    %rax,0x91f9(%rip)        # 40e5e8 <proc_info_features+0x1a8>
  4053ef:	48 8d 05 9e 48 00 00 	lea    0x489e(%rip),%rax        # 409c94 <__libm_error_support.__libm_errno_table+0xa8>
  4053f6:	48 89 05 db 91 00 00 	mov    %rax,0x91db(%rip)        # 40e5d8 <proc_info_features+0x198>
  4053fd:	c7 05 f1 91 00 00 11 	movl   $0x11,0x91f1(%rip)        # 40e5f8 <proc_info_features+0x1b8>
  405404:	00 00 00 
  405407:	48 8d 05 8b 48 00 00 	lea    0x488b(%rip),%rax        # 409c99 <__libm_error_support.__libm_errno_table+0xad>
  40540e:	48 89 05 eb 91 00 00 	mov    %rax,0x91eb(%rip)        # 40e600 <proc_info_features+0x1c0>
  405415:	48 8d 05 83 48 00 00 	lea    0x4883(%rip),%rax        # 409c9f <__libm_error_support.__libm_errno_table+0xb3>
  40541c:	48 89 05 cd 91 00 00 	mov    %rax,0x91cd(%rip)        # 40e5f0 <proc_info_features+0x1b0>
  405423:	c7 05 e3 91 00 00 12 	movl   $0x12,0x91e3(%rip)        # 40e610 <proc_info_features+0x1d0>
  40542a:	00 00 00 
  40542d:	48 8d 05 f0 48 00 00 	lea    0x48f0(%rip),%rax        # 409d24 <__libm_error_support.__libm_errno_table+0x138>
  405434:	48 89 05 dd 91 00 00 	mov    %rax,0x91dd(%rip)        # 40e618 <proc_info_features+0x1d8>
  40543b:	48 8d 05 63 48 00 00 	lea    0x4863(%rip),%rax        # 409ca5 <__libm_error_support.__libm_errno_table+0xb9>
  405442:	48 89 05 bf 91 00 00 	mov    %rax,0x91bf(%rip)        # 40e608 <proc_info_features+0x1c8>
  405449:	c7 05 d5 91 00 00 13 	movl   $0x13,0x91d5(%rip)        # 40e628 <proc_info_features+0x1e8>
  405450:	00 00 00 
  405453:	48 8d 05 4c 49 00 00 	lea    0x494c(%rip),%rax        # 409da6 <__libm_error_support.__libm_errno_table+0x1ba>
  40545a:	48 89 05 cf 91 00 00 	mov    %rax,0x91cf(%rip)        # 40e630 <proc_info_features+0x1f0>
  405461:	48 8d 05 49 49 00 00 	lea    0x4949(%rip),%rax        # 409db1 <__libm_error_support.__libm_errno_table+0x1c5>
  405468:	48 89 05 b1 91 00 00 	mov    %rax,0x91b1(%rip)        # 40e620 <proc_info_features+0x1e0>
  40546f:	c7 05 c7 91 00 00 14 	movl   $0x14,0x91c7(%rip)        # 40e640 <proc_info_features+0x200>
  405476:	00 00 00 
  405479:	48 8d 05 29 48 00 00 	lea    0x4829(%rip),%rax        # 409ca9 <__libm_error_support.__libm_errno_table+0xbd>
  405480:	48 89 05 c1 91 00 00 	mov    %rax,0x91c1(%rip)        # 40e648 <proc_info_features+0x208>
  405487:	48 8d 05 21 48 00 00 	lea    0x4821(%rip),%rax        # 409caf <__libm_error_support.__libm_errno_table+0xc3>
  40548e:	48 89 05 a3 91 00 00 	mov    %rax,0x91a3(%rip)        # 40e638 <proc_info_features+0x1f8>
  405495:	c7 05 b9 91 00 00 15 	movl   $0x15,0x91b9(%rip)        # 40e658 <proc_info_features+0x218>
  40549c:	00 00 00 
  40549f:	48 8d 05 0f 48 00 00 	lea    0x480f(%rip),%rax        # 409cb5 <__libm_error_support.__libm_errno_table+0xc9>
  4054a6:	48 89 05 b3 91 00 00 	mov    %rax,0x91b3(%rip)        # 40e660 <proc_info_features+0x220>
  4054ad:	48 8d 05 05 48 00 00 	lea    0x4805(%rip),%rax        # 409cb9 <__libm_error_support.__libm_errno_table+0xcd>
  4054b4:	48 89 05 95 91 00 00 	mov    %rax,0x9195(%rip)        # 40e650 <proc_info_features+0x210>
  4054bb:	c7 05 ab 91 00 00 16 	movl   $0x16,0x91ab(%rip)        # 40e670 <proc_info_features+0x230>
  4054c2:	00 00 00 
  4054c5:	48 8d 05 f1 47 00 00 	lea    0x47f1(%rip),%rax        # 409cbd <__libm_error_support.__libm_errno_table+0xd1>
  4054cc:	48 89 05 a5 91 00 00 	mov    %rax,0x91a5(%rip)        # 40e678 <proc_info_features+0x238>
  4054d3:	48 8d 05 e7 47 00 00 	lea    0x47e7(%rip),%rax        # 409cc1 <__libm_error_support.__libm_errno_table+0xd5>
  4054da:	48 89 05 87 91 00 00 	mov    %rax,0x9187(%rip)        # 40e668 <proc_info_features+0x228>
  4054e1:	c7 05 9d 91 00 00 17 	movl   $0x17,0x919d(%rip)        # 40e688 <proc_info_features+0x248>
  4054e8:	00 00 00 
  4054eb:	48 8d 05 d3 47 00 00 	lea    0x47d3(%rip),%rax        # 409cc5 <__libm_error_support.__libm_errno_table+0xd9>
  4054f2:	48 89 05 97 91 00 00 	mov    %rax,0x9197(%rip)        # 40e690 <proc_info_features+0x250>
  4054f9:	48 8d 05 ca 47 00 00 	lea    0x47ca(%rip),%rax        # 409cca <__libm_error_support.__libm_errno_table+0xde>
  405500:	48 89 05 79 91 00 00 	mov    %rax,0x9179(%rip)        # 40e680 <proc_info_features+0x240>
  405507:	c7 05 8f 91 00 00 1b 	movl   $0x1b,0x918f(%rip)        # 40e6a0 <proc_info_features+0x260>
  40550e:	00 00 00 
  405511:	48 8d 05 b7 47 00 00 	lea    0x47b7(%rip),%rax        # 409ccf <__libm_error_support.__libm_errno_table+0xe3>
  405518:	48 89 05 89 91 00 00 	mov    %rax,0x9189(%rip)        # 40e6a8 <proc_info_features+0x268>
  40551f:	48 8d 05 b1 47 00 00 	lea    0x47b1(%rip),%rax        # 409cd7 <__libm_error_support.__libm_errno_table+0xeb>
  405526:	48 89 05 6b 91 00 00 	mov    %rax,0x916b(%rip)        # 40e698 <proc_info_features+0x258>
  40552d:	c7 05 81 91 00 00 18 	movl   $0x18,0x9181(%rip)        # 40e6b8 <proc_info_features+0x278>
  405534:	00 00 00 
  405537:	48 8d 05 a1 47 00 00 	lea    0x47a1(%rip),%rax        # 409cdf <__libm_error_support.__libm_errno_table+0xf3>
  40553e:	48 89 05 7b 91 00 00 	mov    %rax,0x917b(%rip)        # 40e6c0 <proc_info_features+0x280>
  405545:	48 8d 05 9c 47 00 00 	lea    0x479c(%rip),%rax        # 409ce8 <__libm_error_support.__libm_errno_table+0xfc>
  40554c:	48 89 05 5d 91 00 00 	mov    %rax,0x915d(%rip)        # 40e6b0 <proc_info_features+0x270>
  405553:	c7 05 73 91 00 00 19 	movl   $0x19,0x9173(%rip)        # 40e6d0 <proc_info_features+0x290>
  40555a:	00 00 00 
  40555d:	48 8d 05 8d 47 00 00 	lea    0x478d(%rip),%rax        # 409cf1 <__libm_error_support.__libm_errno_table+0x105>
  405564:	48 89 05 6d 91 00 00 	mov    %rax,0x916d(%rip)        # 40e6d8 <proc_info_features+0x298>
  40556b:	48 8d 05 87 47 00 00 	lea    0x4787(%rip),%rax        # 409cf9 <__libm_error_support.__libm_errno_table+0x10d>
  405572:	48 89 05 4f 91 00 00 	mov    %rax,0x914f(%rip)        # 40e6c8 <proc_info_features+0x288>
  405579:	48 8d 05 81 47 00 00 	lea    0x4781(%rip),%rax        # 409d01 <__libm_error_support.__libm_errno_table+0x115>
  405580:	48 89 05 59 91 00 00 	mov    %rax,0x9159(%rip)        # 40e6e0 <proc_info_features+0x2a0>
  405587:	c7 05 57 91 00 00 1a 	movl   $0x1a,0x9157(%rip)        # 40e6e8 <proc_info_features+0x2a8>
  40558e:	00 00 00 
  405591:	c7 05 65 91 00 00 1c 	movl   $0x1c,0x9165(%rip)        # 40e700 <proc_info_features+0x2c0>
  405598:	00 00 00 
  40559b:	48 8d 05 65 47 00 00 	lea    0x4765(%rip),%rax        # 409d07 <__libm_error_support.__libm_errno_table+0x11b>
  4055a2:	48 89 05 5f 91 00 00 	mov    %rax,0x915f(%rip)        # 40e708 <proc_info_features+0x2c8>
  4055a9:	48 8d 05 5b 47 00 00 	lea    0x475b(%rip),%rax        # 409d0b <__libm_error_support.__libm_errno_table+0x11f>
  4055b0:	48 89 05 41 91 00 00 	mov    %rax,0x9141(%rip)        # 40e6f8 <proc_info_features+0x2b8>
  4055b7:	c7 05 57 91 00 00 1d 	movl   $0x1d,0x9157(%rip)        # 40e718 <proc_info_features+0x2d8>
  4055be:	00 00 00 
  4055c1:	48 8d 05 47 47 00 00 	lea    0x4747(%rip),%rax        # 409d0f <__libm_error_support.__libm_errno_table+0x123>
  4055c8:	48 89 05 51 91 00 00 	mov    %rax,0x9151(%rip)        # 40e720 <proc_info_features+0x2e0>
  4055cf:	48 8d 05 40 47 00 00 	lea    0x4740(%rip),%rax        # 409d16 <__libm_error_support.__libm_errno_table+0x12a>
  4055d6:	48 89 05 33 91 00 00 	mov    %rax,0x9133(%rip)        # 40e710 <proc_info_features+0x2d0>
  4055dd:	c7 05 49 91 00 00 1e 	movl   $0x1e,0x9149(%rip)        # 40e730 <proc_info_features+0x2f0>
  4055e4:	00 00 00 
  4055e7:	48 8d 05 2f 47 00 00 	lea    0x472f(%rip),%rax        # 409d1d <__libm_error_support.__libm_errno_table+0x131>
  4055ee:	48 89 05 43 91 00 00 	mov    %rax,0x9143(%rip)        # 40e738 <proc_info_features+0x2f8>
  4055f5:	48 8d 05 2c 47 00 00 	lea    0x472c(%rip),%rax        # 409d28 <__libm_error_support.__libm_errno_table+0x13c>
  4055fc:	48 89 05 25 91 00 00 	mov    %rax,0x9125(%rip)        # 40e728 <proc_info_features+0x2e8>
  405603:	c7 05 3b 91 00 00 ff 	movl   $0xffffffff,0x913b(%rip)        # 40e748 <proc_info_features+0x308>
  40560a:	ff ff ff 
  40560d:	c7 05 49 91 00 00 20 	movl   $0x20,0x9149(%rip)        # 40e760 <proc_info_features+0x320>
  405614:	00 00 00 
  405617:	48 8d 05 17 47 00 00 	lea    0x4717(%rip),%rax        # 409d35 <__libm_error_support.__libm_errno_table+0x149>
  40561e:	48 89 05 43 91 00 00 	mov    %rax,0x9143(%rip)        # 40e768 <proc_info_features+0x328>
  405625:	48 8d 05 12 47 00 00 	lea    0x4712(%rip),%rax        # 409d3e <__libm_error_support.__libm_errno_table+0x152>
  40562c:	48 89 05 25 91 00 00 	mov    %rax,0x9125(%rip)        # 40e758 <proc_info_features+0x318>
  405633:	c7 05 3b 91 00 00 21 	movl   $0x21,0x913b(%rip)        # 40e778 <proc_info_features+0x338>
  40563a:	00 00 00 
  40563d:	48 8d 05 03 47 00 00 	lea    0x4703(%rip),%rax        # 409d47 <__libm_error_support.__libm_errno_table+0x15b>
  405644:	48 89 05 35 91 00 00 	mov    %rax,0x9135(%rip)        # 40e780 <proc_info_features+0x340>
  40564b:	48 8d 05 fe 46 00 00 	lea    0x46fe(%rip),%rax        # 409d50 <__libm_error_support.__libm_errno_table+0x164>
  405652:	48 89 05 17 91 00 00 	mov    %rax,0x9117(%rip)        # 40e770 <proc_info_features+0x330>
  405659:	c7 05 2d 91 00 00 22 	movl   $0x22,0x912d(%rip)        # 40e790 <proc_info_features+0x350>
  405660:	00 00 00 
  405663:	48 8d 05 ef 46 00 00 	lea    0x46ef(%rip),%rax        # 409d59 <__libm_error_support.__libm_errno_table+0x16d>
  40566a:	48 89 05 27 91 00 00 	mov    %rax,0x9127(%rip)        # 40e798 <proc_info_features+0x358>
  405671:	48 8d 05 ea 46 00 00 	lea    0x46ea(%rip),%rax        # 409d62 <__libm_error_support.__libm_errno_table+0x176>
  405678:	48 89 05 09 91 00 00 	mov    %rax,0x9109(%rip)        # 40e788 <proc_info_features+0x348>
  40567f:	c7 05 1f 91 00 00 23 	movl   $0x23,0x911f(%rip)        # 40e7a8 <proc_info_features+0x368>
  405686:	00 00 00 
  405689:	48 8d 05 db 46 00 00 	lea    0x46db(%rip),%rax        # 409d6b <__libm_error_support.__libm_errno_table+0x17f>
  405690:	48 89 05 19 91 00 00 	mov    %rax,0x9119(%rip)        # 40e7b0 <proc_info_features+0x370>
  405697:	48 8d 05 d1 46 00 00 	lea    0x46d1(%rip),%rax        # 409d6f <__libm_error_support.__libm_errno_table+0x183>
  40569e:	48 89 05 fb 90 00 00 	mov    %rax,0x90fb(%rip)        # 40e7a0 <proc_info_features+0x360>
  4056a5:	c7 05 11 91 00 00 24 	movl   $0x24,0x9111(%rip)        # 40e7c0 <proc_info_features+0x380>
  4056ac:	00 00 00 
  4056af:	48 8d 05 bd 46 00 00 	lea    0x46bd(%rip),%rax        # 409d73 <__libm_error_support.__libm_errno_table+0x187>
  4056b6:	48 89 05 0b 91 00 00 	mov    %rax,0x910b(%rip)        # 40e7c8 <proc_info_features+0x388>
  4056bd:	48 8d 05 b3 46 00 00 	lea    0x46b3(%rip),%rax        # 409d77 <__libm_error_support.__libm_errno_table+0x18b>
  4056c4:	48 89 05 ed 90 00 00 	mov    %rax,0x90ed(%rip)        # 40e7b8 <proc_info_features+0x378>
  4056cb:	c7 05 03 91 00 00 25 	movl   $0x25,0x9103(%rip)        # 40e7d8 <proc_info_features+0x398>
  4056d2:	00 00 00 
  4056d5:	48 8d 05 9f 46 00 00 	lea    0x469f(%rip),%rax        # 409d7b <__libm_error_support.__libm_errno_table+0x18f>
  4056dc:	48 89 05 fd 90 00 00 	mov    %rax,0x90fd(%rip)        # 40e7e0 <proc_info_features+0x3a0>
  4056e3:	48 8d 05 9a 46 00 00 	lea    0x469a(%rip),%rax        # 409d84 <__libm_error_support.__libm_errno_table+0x198>
  4056ea:	48 89 05 df 90 00 00 	mov    %rax,0x90df(%rip)        # 40e7d0 <proc_info_features+0x390>
  4056f1:	c7 05 f5 90 00 00 26 	movl   $0x26,0x90f5(%rip)        # 40e7f0 <proc_info_features+0x3b0>
  4056f8:	00 00 00 
  4056fb:	48 8d 05 8b 46 00 00 	lea    0x468b(%rip),%rax        # 409d8d <__libm_error_support.__libm_errno_table+0x1a1>
  405702:	48 89 05 ef 90 00 00 	mov    %rax,0x90ef(%rip)        # 40e7f8 <proc_info_features+0x3b8>
  405709:	48 8d 05 86 46 00 00 	lea    0x4686(%rip),%rax        # 409d96 <__libm_error_support.__libm_errno_table+0x1aa>
  405710:	48 89 05 d1 90 00 00 	mov    %rax,0x90d1(%rip)        # 40e7e8 <proc_info_features+0x3a8>
  405717:	c7 05 e7 90 00 00 27 	movl   $0x27,0x90e7(%rip)        # 40e808 <proc_info_features+0x3c8>
  40571e:	00 00 00 
  405721:	48 8d 05 77 46 00 00 	lea    0x4677(%rip),%rax        # 409d9f <__libm_error_support.__libm_errno_table+0x1b3>
  405728:	48 89 05 e1 90 00 00 	mov    %rax,0x90e1(%rip)        # 40e810 <proc_info_features+0x3d0>
  40572f:	48 8d 05 74 46 00 00 	lea    0x4674(%rip),%rax        # 409daa <__libm_error_support.__libm_errno_table+0x1be>
  405736:	48 89 05 c3 90 00 00 	mov    %rax,0x90c3(%rip)        # 40e800 <proc_info_features+0x3c0>
  40573d:	c7 05 d9 90 00 00 28 	movl   $0x28,0x90d9(%rip)        # 40e820 <proc_info_features+0x3e0>
  405744:	00 00 00 
  405747:	48 8d 05 67 46 00 00 	lea    0x4667(%rip),%rax        # 409db5 <__libm_error_support.__libm_errno_table+0x1c9>
  40574e:	48 89 05 d3 90 00 00 	mov    %rax,0x90d3(%rip)        # 40e828 <proc_info_features+0x3e8>
  405755:	48 8d 05 66 46 00 00 	lea    0x4666(%rip),%rax        # 409dc2 <__libm_error_support.__libm_errno_table+0x1d6>
  40575c:	48 89 05 b5 90 00 00 	mov    %rax,0x90b5(%rip)        # 40e818 <proc_info_features+0x3d8>
  405763:	c7 05 cb 90 00 00 29 	movl   $0x29,0x90cb(%rip)        # 40e838 <proc_info_features+0x3f8>
  40576a:	00 00 00 
  40576d:	48 8d 05 5c 46 00 00 	lea    0x465c(%rip),%rax        # 409dd0 <__libm_error_support.__libm_errno_table+0x1e4>
  405774:	48 89 05 c5 90 00 00 	mov    %rax,0x90c5(%rip)        # 40e840 <proc_info_features+0x400>
  40577b:	48 8d 05 5b 46 00 00 	lea    0x465b(%rip),%rax        # 409ddd <__libm_error_support.__libm_errno_table+0x1f1>
  405782:	48 89 05 a7 90 00 00 	mov    %rax,0x90a7(%rip)        # 40e830 <proc_info_features+0x3f0>
  405789:	c7 05 bd 90 00 00 2a 	movl   $0x2a,0x90bd(%rip)        # 40e850 <proc_info_features+0x410>
  405790:	00 00 00 
  405793:	48 8d 05 51 46 00 00 	lea    0x4651(%rip),%rax        # 409deb <__libm_error_support.__libm_errno_table+0x1ff>
  40579a:	48 89 05 b7 90 00 00 	mov    %rax,0x90b7(%rip)        # 40e858 <proc_info_features+0x418>
  4057a1:	48 8d 05 53 46 00 00 	lea    0x4653(%rip),%rax        # 409dfb <__libm_error_support.__libm_errno_table+0x20f>
  4057a8:	48 89 05 99 90 00 00 	mov    %rax,0x9099(%rip)        # 40e848 <proc_info_features+0x408>
  4057af:	c7 05 af 90 00 00 2b 	movl   $0x2b,0x90af(%rip)        # 40e868 <proc_info_features+0x428>
  4057b6:	00 00 00 
  4057b9:	48 8d 05 4c 46 00 00 	lea    0x464c(%rip),%rax        # 409e0c <__libm_error_support.__libm_errno_table+0x220>
  4057c0:	48 89 05 a9 90 00 00 	mov    %rax,0x90a9(%rip)        # 40e870 <proc_info_features+0x430>
  4057c7:	48 8d 05 4b 46 00 00 	lea    0x464b(%rip),%rax        # 409e19 <__libm_error_support.__libm_errno_table+0x22d>
  4057ce:	48 89 05 8b 90 00 00 	mov    %rax,0x908b(%rip)        # 40e860 <proc_info_features+0x420>
  4057d5:	c7 05 a1 90 00 00 2c 	movl   $0x2c,0x90a1(%rip)        # 40e880 <proc_info_features+0x440>
  4057dc:	00 00 00 
  4057df:	48 8d 05 41 46 00 00 	lea    0x4641(%rip),%rax        # 409e27 <__libm_error_support.__libm_errno_table+0x23b>
  4057e6:	48 89 05 9b 90 00 00 	mov    %rax,0x909b(%rip)        # 40e888 <proc_info_features+0x448>
  4057ed:	48 8d 05 3f 46 00 00 	lea    0x463f(%rip),%rax        # 409e33 <__libm_error_support.__libm_errno_table+0x247>
  4057f4:	48 89 05 7d 90 00 00 	mov    %rax,0x907d(%rip)        # 40e878 <proc_info_features+0x438>
  4057fb:	c7 05 93 90 00 00 2d 	movl   $0x2d,0x9093(%rip)        # 40e898 <proc_info_features+0x458>
  405802:	00 00 00 
  405805:	48 8d 05 34 46 00 00 	lea    0x4634(%rip),%rax        # 409e40 <__libm_error_support.__libm_errno_table+0x254>
  40580c:	48 89 05 8d 90 00 00 	mov    %rax,0x908d(%rip)        # 40e8a0 <proc_info_features+0x460>
  405813:	48 8d 05 2b 46 00 00 	lea    0x462b(%rip),%rax        # 409e45 <__libm_error_support.__libm_errno_table+0x259>
  40581a:	48 89 05 6f 90 00 00 	mov    %rax,0x906f(%rip)        # 40e890 <proc_info_features+0x450>
  405821:	c7 05 85 90 00 00 2e 	movl   $0x2e,0x9085(%rip)        # 40e8b0 <proc_info_features+0x470>
  405828:	00 00 00 
  40582b:	48 8d 05 18 46 00 00 	lea    0x4618(%rip),%rax        # 409e4a <__libm_error_support.__libm_errno_table+0x25e>
  405832:	48 89 05 7f 90 00 00 	mov    %rax,0x907f(%rip)        # 40e8b8 <proc_info_features+0x478>
  405839:	48 8d 05 0f 46 00 00 	lea    0x460f(%rip),%rax        # 409e4f <__libm_error_support.__libm_errno_table+0x263>
  405840:	48 89 05 61 90 00 00 	mov    %rax,0x9061(%rip)        # 40e8a8 <proc_info_features+0x468>
  405847:	c7 05 77 90 00 00 2f 	movl   $0x2f,0x9077(%rip)        # 40e8c8 <proc_info_features+0x488>
  40584e:	00 00 00 
  405851:	48 8d 05 fc 45 00 00 	lea    0x45fc(%rip),%rax        # 409e54 <__libm_error_support.__libm_errno_table+0x268>
  405858:	48 89 05 71 90 00 00 	mov    %rax,0x9071(%rip)        # 40e8d0 <proc_info_features+0x490>
  40585f:	48 8d 05 f9 45 00 00 	lea    0x45f9(%rip),%rax        # 409e5f <__libm_error_support.__libm_errno_table+0x273>
  405866:	48 89 05 53 90 00 00 	mov    %rax,0x9053(%rip)        # 40e8c0 <proc_info_features+0x480>
  40586d:	c7 05 69 90 00 00 30 	movl   $0x30,0x9069(%rip)        # 40e8e0 <proc_info_features+0x4a0>
  405874:	00 00 00 
  405877:	48 8d 05 ec 45 00 00 	lea    0x45ec(%rip),%rax        # 409e6a <__libm_error_support.__libm_errno_table+0x27e>
  40587e:	48 89 05 63 90 00 00 	mov    %rax,0x9063(%rip)        # 40e8e8 <proc_info_features+0x4a8>
  405885:	48 8d 05 e9 45 00 00 	lea    0x45e9(%rip),%rax        # 409e75 <__libm_error_support.__libm_errno_table+0x289>
  40588c:	48 89 05 45 90 00 00 	mov    %rax,0x9045(%rip)        # 40e8d8 <proc_info_features+0x498>
  405893:	c7 05 5b 90 00 00 31 	movl   $0x31,0x905b(%rip)        # 40e8f8 <proc_info_features+0x4b8>
  40589a:	00 00 00 
  40589d:	48 8d 05 dd 45 00 00 	lea    0x45dd(%rip),%rax        # 409e81 <__libm_error_support.__libm_errno_table+0x295>
  4058a4:	48 89 05 55 90 00 00 	mov    %rax,0x9055(%rip)        # 40e900 <proc_info_features+0x4c0>
  4058ab:	48 8d 05 d4 45 00 00 	lea    0x45d4(%rip),%rax        # 409e86 <__libm_error_support.__libm_errno_table+0x29a>
  4058b2:	48 89 05 37 90 00 00 	mov    %rax,0x9037(%rip)        # 40e8f0 <proc_info_features+0x4b0>
  4058b9:	c7 05 4d 90 00 00 32 	movl   $0x32,0x904d(%rip)        # 40e910 <proc_info_features+0x4d0>
  4058c0:	00 00 00 
  4058c3:	48 8d 05 c1 45 00 00 	lea    0x45c1(%rip),%rax        # 409e8b <__libm_error_support.__libm_errno_table+0x29f>
  4058ca:	48 89 05 47 90 00 00 	mov    %rax,0x9047(%rip)        # 40e918 <proc_info_features+0x4d8>
  4058d1:	48 8d 05 b9 45 00 00 	lea    0x45b9(%rip),%rax        # 409e91 <__libm_error_support.__libm_errno_table+0x2a5>
  4058d8:	48 89 05 29 90 00 00 	mov    %rax,0x9029(%rip)        # 40e908 <proc_info_features+0x4c8>
  4058df:	c7 05 3f 90 00 00 33 	movl   $0x33,0x903f(%rip)        # 40e928 <proc_info_features+0x4e8>
  4058e6:	00 00 00 
  4058e9:	48 8d 05 a7 45 00 00 	lea    0x45a7(%rip),%rax        # 409e97 <__libm_error_support.__libm_errno_table+0x2ab>
  4058f0:	48 89 05 39 90 00 00 	mov    %rax,0x9039(%rip)        # 40e930 <proc_info_features+0x4f0>
  4058f7:	48 8d 05 9d 45 00 00 	lea    0x459d(%rip),%rax        # 409e9b <__libm_error_support.__libm_errno_table+0x2af>
  4058fe:	48 89 05 1b 90 00 00 	mov    %rax,0x901b(%rip)        # 40e920 <proc_info_features+0x4e0>
  405905:	c7 05 31 90 00 00 34 	movl   $0x34,0x9031(%rip)        # 40e940 <proc_info_features+0x500>
  40590c:	00 00 00 
  40590f:	48 8d 05 89 45 00 00 	lea    0x4589(%rip),%rax        # 409e9f <__libm_error_support.__libm_errno_table+0x2b3>
  405916:	48 89 05 2b 90 00 00 	mov    %rax,0x902b(%rip)        # 40e948 <proc_info_features+0x508>
  40591d:	48 8d 05 81 45 00 00 	lea    0x4581(%rip),%rax        # 409ea5 <__libm_error_support.__libm_errno_table+0x2b9>
  405924:	48 89 05 0d 90 00 00 	mov    %rax,0x900d(%rip)        # 40e938 <proc_info_features+0x4f8>
  40592b:	c7 05 23 90 00 00 35 	movl   $0x35,0x9023(%rip)        # 40e958 <proc_info_features+0x518>
  405932:	00 00 00 
  405935:	48 8d 05 6f 45 00 00 	lea    0x456f(%rip),%rax        # 409eab <__libm_error_support.__libm_errno_table+0x2bf>
  40593c:	48 89 05 1d 90 00 00 	mov    %rax,0x901d(%rip)        # 40e960 <proc_info_features+0x520>
  405943:	48 8d 05 65 45 00 00 	lea    0x4565(%rip),%rax        # 409eaf <__libm_error_support.__libm_errno_table+0x2c3>
  40594a:	48 89 05 ff 8f 00 00 	mov    %rax,0x8fff(%rip)        # 40e950 <proc_info_features+0x510>
  405951:	c7 05 15 90 00 00 36 	movl   $0x36,0x9015(%rip)        # 40e970 <proc_info_features+0x530>
  405958:	00 00 00 
  40595b:	48 8d 05 51 45 00 00 	lea    0x4551(%rip),%rax        # 409eb3 <__libm_error_support.__libm_errno_table+0x2c7>
  405962:	48 89 05 0f 90 00 00 	mov    %rax,0x900f(%rip)        # 40e978 <proc_info_features+0x538>
  405969:	48 8d 05 4c 45 00 00 	lea    0x454c(%rip),%rax        # 409ebc <__libm_error_support.__libm_errno_table+0x2d0>
  405970:	48 89 05 f1 8f 00 00 	mov    %rax,0x8ff1(%rip)        # 40e968 <proc_info_features+0x528>
  405977:	c7 05 07 90 00 00 37 	movl   $0x37,0x9007(%rip)        # 40e988 <proc_info_features+0x548>
  40597e:	00 00 00 
  405981:	48 8d 05 3d 45 00 00 	lea    0x453d(%rip),%rax        # 409ec5 <__libm_error_support.__libm_errno_table+0x2d9>
  405988:	48 89 05 01 90 00 00 	mov    %rax,0x9001(%rip)        # 40e990 <proc_info_features+0x550>
  40598f:	48 8d 05 37 45 00 00 	lea    0x4537(%rip),%rax        # 409ecd <__libm_error_support.__libm_errno_table+0x2e1>
  405996:	48 89 05 e3 8f 00 00 	mov    %rax,0x8fe3(%rip)        # 40e980 <proc_info_features+0x540>
  40599d:	c7 05 f9 8f 00 00 38 	movl   $0x38,0x8ff9(%rip)        # 40e9a0 <proc_info_features+0x560>
  4059a4:	00 00 00 
  4059a7:	48 8d 05 27 45 00 00 	lea    0x4527(%rip),%rax        # 409ed5 <__libm_error_support.__libm_errno_table+0x2e9>
  4059ae:	48 89 05 f3 8f 00 00 	mov    %rax,0x8ff3(%rip)        # 40e9a8 <proc_info_features+0x568>
  4059b5:	48 8d 05 2c 45 00 00 	lea    0x452c(%rip),%rax        # 409ee8 <__libm_error_support.__libm_errno_table+0x2fc>
  4059bc:	48 89 05 d5 8f 00 00 	mov    %rax,0x8fd5(%rip)        # 40e998 <proc_info_features+0x558>
  4059c3:	c7 05 eb 8f 00 00 3c 	movl   $0x3c,0x8feb(%rip)        # 40e9b8 <proc_info_features+0x578>
  4059ca:	00 00 00 
  4059cd:	48 8d 05 28 45 00 00 	lea    0x4528(%rip),%rax        # 409efc <__libm_error_support.__libm_errno_table+0x310>
  4059d4:	48 89 05 e5 8f 00 00 	mov    %rax,0x8fe5(%rip)        # 40e9c0 <proc_info_features+0x580>
  4059db:	48 8d 05 25 45 00 00 	lea    0x4525(%rip),%rax        # 409f07 <__libm_error_support.__libm_errno_table+0x31b>
  4059e2:	48 89 05 c7 8f 00 00 	mov    %rax,0x8fc7(%rip)        # 40e9b0 <proc_info_features+0x570>
  4059e9:	c7 05 dd 8f 00 00 40 	movl   $0x40,0x8fdd(%rip)        # 40e9d0 <proc_info_features+0x590>
  4059f0:	00 00 00 
  4059f3:	48 8d 05 19 45 00 00 	lea    0x4519(%rip),%rax        # 409f13 <__libm_error_support.__libm_errno_table+0x327>
  4059fa:	48 89 05 d7 8f 00 00 	mov    %rax,0x8fd7(%rip)        # 40e9d8 <proc_info_features+0x598>
  405a01:	48 8d 05 14 45 00 00 	lea    0x4514(%rip),%rax        # 409f1c <__libm_error_support.__libm_errno_table+0x330>
  405a08:	48 89 05 b9 8f 00 00 	mov    %rax,0x8fb9(%rip)        # 40e9c8 <proc_info_features+0x588>
  405a0f:	c7 05 cf 8f 00 00 41 	movl   $0x41,0x8fcf(%rip)        # 40e9e8 <proc_info_features+0x5a8>
  405a16:	00 00 00 
  405a19:	48 8d 05 05 45 00 00 	lea    0x4505(%rip),%rax        # 409f25 <__libm_error_support.__libm_errno_table+0x339>
  405a20:	48 89 05 c9 8f 00 00 	mov    %rax,0x8fc9(%rip)        # 40e9f0 <proc_info_features+0x5b0>
  405a27:	48 8d 05 ff 44 00 00 	lea    0x44ff(%rip),%rax        # 409f2d <__libm_error_support.__libm_errno_table+0x341>
  405a2e:	48 89 05 ab 8f 00 00 	mov    %rax,0x8fab(%rip)        # 40e9e0 <proc_info_features+0x5a0>
  405a35:	c7 05 c1 8f 00 00 42 	movl   $0x42,0x8fc1(%rip)        # 40ea00 <proc_info_features+0x5c0>
  405a3c:	00 00 00 
  405a3f:	48 8d 05 ef 44 00 00 	lea    0x44ef(%rip),%rax        # 409f35 <__libm_error_support.__libm_errno_table+0x349>
  405a46:	48 89 05 bb 8f 00 00 	mov    %rax,0x8fbb(%rip)        # 40ea08 <proc_info_features+0x5c8>
  405a4d:	48 8d 05 eb 44 00 00 	lea    0x44eb(%rip),%rax        # 409f3f <__libm_error_support.__libm_errno_table+0x353>
  405a54:	48 89 05 9d 8f 00 00 	mov    %rax,0x8f9d(%rip)        # 40e9f8 <proc_info_features+0x5b8>
  405a5b:	c7 05 b3 8f 00 00 43 	movl   $0x43,0x8fb3(%rip)        # 40ea18 <proc_info_features+0x5d8>
  405a62:	00 00 00 
  405a65:	48 8d 05 dd 44 00 00 	lea    0x44dd(%rip),%rax        # 409f49 <__libm_error_support.__libm_errno_table+0x35d>
  405a6c:	48 89 05 ad 8f 00 00 	mov    %rax,0x8fad(%rip)        # 40ea20 <proc_info_features+0x5e0>
  405a73:	48 8d 05 d7 44 00 00 	lea    0x44d7(%rip),%rax        # 409f51 <__libm_error_support.__libm_errno_table+0x365>
  405a7a:	48 89 05 8f 8f 00 00 	mov    %rax,0x8f8f(%rip)        # 40ea10 <proc_info_features+0x5d0>
  405a81:	c7 05 a5 8f 00 00 44 	movl   $0x44,0x8fa5(%rip)        # 40ea30 <proc_info_features+0x5f0>
  405a88:	00 00 00 
  405a8b:	48 8d 05 c7 44 00 00 	lea    0x44c7(%rip),%rax        # 409f59 <__libm_error_support.__libm_errno_table+0x36d>
  405a92:	48 89 05 9f 8f 00 00 	mov    %rax,0x8f9f(%rip)        # 40ea38 <proc_info_features+0x5f8>
  405a99:	48 8d 05 c4 44 00 00 	lea    0x44c4(%rip),%rax        # 409f64 <__libm_error_support.__libm_errno_table+0x378>
  405aa0:	48 89 05 81 8f 00 00 	mov    %rax,0x8f81(%rip)        # 40ea28 <proc_info_features+0x5e8>
  405aa7:	c7 05 97 8f 00 00 45 	movl   $0x45,0x8f97(%rip)        # 40ea48 <proc_info_features+0x608>
  405aae:	00 00 00 
  405ab1:	48 8d 05 b8 44 00 00 	lea    0x44b8(%rip),%rax        # 409f70 <__libm_error_support.__libm_errno_table+0x384>
  405ab8:	48 89 05 91 8f 00 00 	mov    %rax,0x8f91(%rip)        # 40ea50 <proc_info_features+0x610>
  405abf:	48 8d 05 b1 44 00 00 	lea    0x44b1(%rip),%rax        # 409f77 <__libm_error_support.__libm_errno_table+0x38b>
  405ac6:	48 89 05 73 8f 00 00 	mov    %rax,0x8f73(%rip)        # 40ea40 <proc_info_features+0x600>
  405acd:	c7 05 89 8f 00 00 46 	movl   $0x46,0x8f89(%rip)        # 40ea60 <proc_info_features+0x620>
  405ad4:	00 00 00 
  405ad7:	48 8d 05 a0 44 00 00 	lea    0x44a0(%rip),%rax        # 409f7e <__libm_error_support.__libm_errno_table+0x392>
  405ade:	48 89 05 83 8f 00 00 	mov    %rax,0x8f83(%rip)        # 40ea68 <proc_info_features+0x628>
  405ae5:	48 8d 05 9a 44 00 00 	lea    0x449a(%rip),%rax        # 409f86 <__libm_error_support.__libm_errno_table+0x39a>
  405aec:	48 89 05 65 8f 00 00 	mov    %rax,0x8f65(%rip)        # 40ea58 <proc_info_features+0x618>
  405af3:	c7 05 7b 8f 00 00 47 	movl   $0x47,0x8f7b(%rip)        # 40ea78 <proc_info_features+0x638>
  405afa:	00 00 00 
  405afd:	48 8d 05 8b 44 00 00 	lea    0x448b(%rip),%rax        # 409f8f <__libm_error_support.__libm_errno_table+0x3a3>
  405b04:	48 89 05 75 8f 00 00 	mov    %rax,0x8f75(%rip)        # 40ea80 <proc_info_features+0x640>
  405b0b:	48 8d 05 86 44 00 00 	lea    0x4486(%rip),%rax        # 409f98 <__libm_error_support.__libm_errno_table+0x3ac>
  405b12:	48 89 05 57 8f 00 00 	mov    %rax,0x8f57(%rip)        # 40ea70 <proc_info_features+0x630>
  405b19:	c7 05 6d 8f 00 00 48 	movl   $0x48,0x8f6d(%rip)        # 40ea90 <proc_info_features+0x650>
  405b20:	00 00 00 
  405b23:	48 8d 05 77 44 00 00 	lea    0x4477(%rip),%rax        # 409fa1 <__libm_error_support.__libm_errno_table+0x3b5>
  405b2a:	48 89 05 67 8f 00 00 	mov    %rax,0x8f67(%rip)        # 40ea98 <proc_info_features+0x658>
  405b31:	48 8d 05 72 44 00 00 	lea    0x4472(%rip),%rax        # 409faa <__libm_error_support.__libm_errno_table+0x3be>
  405b38:	48 89 05 49 8f 00 00 	mov    %rax,0x8f49(%rip)        # 40ea88 <proc_info_features+0x648>
  405b3f:	c7 05 5f 8f 00 00 49 	movl   $0x49,0x8f5f(%rip)        # 40eaa8 <proc_info_features+0x668>
  405b46:	00 00 00 
  405b49:	48 8d 05 63 44 00 00 	lea    0x4463(%rip),%rax        # 409fb3 <__libm_error_support.__libm_errno_table+0x3c7>
  405b50:	48 89 05 59 8f 00 00 	mov    %rax,0x8f59(%rip)        # 40eab0 <proc_info_features+0x670>
  405b57:	48 8d 05 5e 44 00 00 	lea    0x445e(%rip),%rax        # 409fbc <__libm_error_support.__libm_errno_table+0x3d0>
  405b5e:	48 89 05 3b 8f 00 00 	mov    %rax,0x8f3b(%rip)        # 40eaa0 <proc_info_features+0x660>
  405b65:	c7 05 51 8f 00 00 4a 	movl   $0x4a,0x8f51(%rip)        # 40eac0 <proc_info_features+0x680>
  405b6c:	00 00 00 
  405b6f:	48 8d 05 54 44 00 00 	lea    0x4454(%rip),%rax        # 409fca <__libm_error_support.__libm_errno_table+0x3de>
  405b76:	48 89 05 4b 8f 00 00 	mov    %rax,0x8f4b(%rip)        # 40eac8 <proc_info_features+0x688>
  405b7d:	48 8d 05 4e 44 00 00 	lea    0x444e(%rip),%rax        # 409fd2 <__libm_error_support.__libm_errno_table+0x3e6>
  405b84:	48 89 05 2d 8f 00 00 	mov    %rax,0x8f2d(%rip)        # 40eab8 <proc_info_features+0x678>
  405b8b:	c7 05 43 8f 00 00 4b 	movl   $0x4b,0x8f43(%rip)        # 40ead8 <proc_info_features+0x698>
  405b92:	00 00 00 
  405b95:	48 8d 05 29 44 00 00 	lea    0x4429(%rip),%rax        # 409fc5 <__libm_error_support.__libm_errno_table+0x3d9>
  405b9c:	48 89 05 3d 8f 00 00 	mov    %rax,0x8f3d(%rip)        # 40eae0 <proc_info_features+0x6a0>
  405ba3:	48 8d 05 23 44 00 00 	lea    0x4423(%rip),%rax        # 409fcd <__libm_error_support.__libm_errno_table+0x3e1>
  405baa:	48 89 05 1f 8f 00 00 	mov    %rax,0x8f1f(%rip)        # 40ead0 <proc_info_features+0x690>
  405bb1:	c6 05 78 88 00 00 01 	movb   $0x1,0x8878(%rip)        # 40e430 <__libirc_isa_info_initialized>
  405bb8:	59                   	pop    %rcx
  405bb9:	c3                   	retq   
  405bba:	66 0f 1f 44 00 00    	nopw   0x0(%rax,%rax,1)

0000000000405bc0 <__libirc_get_feature_bitpos>:
  405bc0:	f3 0f 1e fa          	endbr64 
  405bc4:	51                   	push   %rcx
  405bc5:	89 c1                	mov    %eax,%ecx
  405bc7:	80 3d 62 88 00 00 00 	cmpb   $0x0,0x8862(%rip)        # 40e430 <__libirc_isa_info_initialized>
  405bce:	75 05                	jne    405bd5 <__libirc_get_feature_bitpos+0x15>
  405bd0:	e8 2b f5 ff ff       	callq  405100 <__libirc_isa_init_once>
  405bd5:	89 c8                	mov    %ecx,%eax
  405bd7:	48 8d 04 40          	lea    (%rax,%rax,2),%rax
  405bdb:	48 8d 0d 5e 88 00 00 	lea    0x885e(%rip),%rcx        # 40e440 <proc_info_features>
  405be2:	8b 4c c1 08          	mov    0x8(%rcx,%rax,8),%ecx
  405be6:	8d 41 80             	lea    -0x80(%rcx),%eax
  405be9:	3d 7f ff ff ff       	cmp    $0xffffff7f,%eax
  405bee:	b8 fd ff ff ff       	mov    $0xfffffffd,%eax
  405bf3:	0f 43 c1             	cmovae %ecx,%eax
  405bf6:	59                   	pop    %rcx
  405bf7:	c3                   	retq   
  405bf8:	0f 1f 84 00 00 00 00 	nopl   0x0(%rax,%rax,1)
  405bff:	00 

0000000000405c00 <__libirc_get_cpu_feature>:
  405c00:	f3 0f 1e fa          	endbr64 
  405c04:	50                   	push   %rax
  405c05:	80 3d 24 88 00 00 00 	cmpb   $0x0,0x8824(%rip)        # 40e430 <__libirc_isa_info_initialized>
  405c0c:	75 05                	jne    405c13 <__libirc_get_cpu_feature+0x13>
  405c0e:	e8 ed f4 ff ff       	callq  405100 <__libirc_isa_init_once>
  405c13:	89 f0                	mov    %esi,%eax
  405c15:	48 8d 04 40          	lea    (%rax,%rax,2),%rax
  405c19:	48 8d 0d 20 88 00 00 	lea    0x8820(%rip),%rcx        # 40e440 <proc_info_features>
  405c20:	8b 4c c1 08          	mov    0x8(%rcx,%rax,8),%ecx
  405c24:	8d 41 80             	lea    -0x80(%rcx),%eax
  405c27:	3d 7f ff ff ff       	cmp    $0xffffff7f,%eax
  405c2c:	b8 fd ff ff ff       	mov    $0xfffffffd,%eax
  405c31:	0f 43 c1             	cmovae %ecx,%eax
  405c34:	85 c0                	test   %eax,%eax
  405c36:	78 14                	js     405c4c <__libirc_get_cpu_feature+0x4c>
  405c38:	89 c1                	mov    %eax,%ecx
  405c3a:	c1 e9 06             	shr    $0x6,%ecx
  405c3d:	48 8b 0c cf          	mov    (%rdi,%rcx,8),%rcx
  405c41:	31 d2                	xor    %edx,%edx
  405c43:	48 0f a3 c1          	bt     %rax,%rcx
  405c47:	0f 92 c2             	setb   %dl
  405c4a:	89 d0                	mov    %edx,%eax
  405c4c:	59                   	pop    %rcx
  405c4d:	c3                   	retq   
  405c4e:	66 90                	xchg   %ax,%ax

0000000000405c50 <__libirc_set_cpu_feature>:
  405c50:	52                   	push   %rdx
  405c51:	56                   	push   %rsi
  405c52:	57                   	push   %rdi
  405c53:	48 89 c2             	mov    %rax,%rdx
  405c56:	80 3d d3 87 00 00 00 	cmpb   $0x0,0x87d3(%rip)        # 40e430 <__libirc_isa_info_initialized>
  405c5d:	75 05                	jne    405c64 <__libirc_set_cpu_feature+0x14>
  405c5f:	e8 9c f4 ff ff       	callq  405100 <__libirc_isa_init_once>
  405c64:	89 c8                	mov    %ecx,%eax
  405c66:	48 8d 04 40          	lea    (%rax,%rax,2),%rax
  405c6a:	48 8d 0d cf 87 00 00 	lea    0x87cf(%rip),%rcx        # 40e440 <proc_info_features>
  405c71:	8b 4c c1 08          	mov    0x8(%rcx,%rax,8),%ecx
  405c75:	8d 41 80             	lea    -0x80(%rcx),%eax
  405c78:	3d 7f ff ff ff       	cmp    $0xffffff7f,%eax
  405c7d:	b8 fd ff ff ff       	mov    $0xfffffffd,%eax
  405c82:	0f 43 c1             	cmovae %ecx,%eax
  405c85:	85 c0                	test   %eax,%eax
  405c87:	78 18                	js     405ca1 <__libirc_set_cpu_feature+0x51>
  405c89:	89 c6                	mov    %eax,%esi
  405c8b:	c1 ee 06             	shr    $0x6,%esi
  405c8e:	83 e0 3f             	and    $0x3f,%eax
  405c91:	bf 01 00 00 00       	mov    $0x1,%edi
  405c96:	89 c1                	mov    %eax,%ecx
  405c98:	48 d3 e7             	shl    %cl,%rdi
  405c9b:	48 09 3c f2          	or     %rdi,(%rdx,%rsi,8)
  405c9f:	31 c0                	xor    %eax,%eax
  405ca1:	5f                   	pop    %rdi
  405ca2:	5e                   	pop    %rsi
  405ca3:	5a                   	pop    %rdx
  405ca4:	c3                   	retq   
  405ca5:	66 66 2e 0f 1f 84 00 	data16 nopw %cs:0x0(%rax,%rax,1)
  405cac:	00 00 00 00 

0000000000405cb0 <__libirc_handle_intel_isa_disable>:
  405cb0:	41 57                	push   %r15
  405cb2:	41 56                	push   %r14
  405cb4:	41 55                	push   %r13
  405cb6:	41 54                	push   %r12
  405cb8:	53                   	push   %rbx
  405cb9:	45 31 ff             	xor    %r15d,%r15d
  405cbc:	48 85 ff             	test   %rdi,%rdi
  405cbf:	0f 84 56 01 00 00    	je     405e1b <__libirc_handle_intel_isa_disable+0x16b>
  405cc5:	49 89 fe             	mov    %rdi,%r14
  405cc8:	48 8d 3d 28 3f 00 00 	lea    0x3f28(%rip),%rdi        # 409bf7 <__libm_error_support.__libm_errno_table+0xb>
  405ccf:	e8 fc c4 ff ff       	callq  4021d0 <getenv@plt>
  405cd4:	49 89 c4             	mov    %rax,%r12
  405cd7:	e8 74 c3 ff ff       	callq  402050 <__errno_location@plt>
  405cdc:	c7 00 00 00 00 00    	movl   $0x0,(%rax)
  405ce2:	4d 85 e4             	test   %r12,%r12
  405ce5:	0f 84 30 01 00 00    	je     405e1b <__libirc_handle_intel_isa_disable+0x16b>
  405ceb:	41 8a 04 24          	mov    (%r12),%al
  405cef:	45 31 ff             	xor    %r15d,%r15d
  405cf2:	84 c0                	test   %al,%al
  405cf4:	0f 84 21 01 00 00    	je     405e1b <__libirc_handle_intel_isa_disable+0x16b>
  405cfa:	4c 8d 05 3f 87 00 00 	lea    0x873f(%rip),%r8        # 40e440 <proc_info_features>
  405d01:	45 31 c9             	xor    %r9d,%r9d
  405d04:	49 8d 7c 24 01       	lea    0x1(%r12),%rdi
  405d09:	ba 01 00 00 00       	mov    $0x1,%edx
  405d0e:	4c 29 e2             	sub    %r12,%rdx
  405d11:	4d 89 e5             	mov    %r12,%r13
  405d14:	3c 2c                	cmp    $0x2c,%al
  405d16:	75 1a                	jne    405d32 <__libirc_handle_intel_isa_disable+0x82>
  405d18:	0f 1f 84 00 00 00 00 	nopl   0x0(%rax,%rax,1)
  405d1f:	00 
  405d20:	41 0f b6 45 01       	movzbl 0x1(%r13),%eax
  405d25:	49 ff c5             	inc    %r13
  405d28:	48 ff c7             	inc    %rdi
  405d2b:	48 ff ca             	dec    %rdx
  405d2e:	3c 2c                	cmp    $0x2c,%al
  405d30:	74 ee                	je     405d20 <__libirc_handle_intel_isa_disable+0x70>
  405d32:	0f b6 c0             	movzbl %al,%eax
  405d35:	85 c0                	test   %eax,%eax
  405d37:	0f 84 de 00 00 00    	je     405e1b <__libirc_handle_intel_isa_disable+0x16b>
  405d3d:	49 89 fc             	mov    %rdi,%r12
  405d40:	4c 89 e0             	mov    %r12,%rax
  405d43:	41 0f b6 0c 24       	movzbl (%r12),%ecx
  405d48:	49 ff c4             	inc    %r12
  405d4b:	83 f9 2c             	cmp    $0x2c,%ecx
  405d4e:	74 10                	je     405d60 <__libirc_handle_intel_isa_disable+0xb0>
  405d50:	85 c9                	test   %ecx,%ecx
  405d52:	74 0c                	je     405d60 <__libirc_handle_intel_isa_disable+0xb0>
  405d54:	49 89 c1             	mov    %rax,%r9
  405d57:	eb e7                	jmp    405d40 <__libirc_handle_intel_isa_disable+0x90>
  405d59:	0f 1f 80 00 00 00 00 	nopl   0x0(%rax)
  405d60:	4d 89 cb             	mov    %r9,%r11
  405d63:	4d 29 eb             	sub    %r13,%r11
  405d66:	49 ff cc             	dec    %r12
  405d69:	49 ff c3             	inc    %r11
  405d6c:	75 0d                	jne    405d7b <__libirc_handle_intel_isa_disable+0xcb>
  405d6e:	41 8a 04 24          	mov    (%r12),%al
  405d72:	84 c0                	test   %al,%al
  405d74:	75 8e                	jne    405d04 <__libirc_handle_intel_isa_disable+0x54>
  405d76:	e9 a0 00 00 00       	jmpq   405e1b <__libirc_handle_intel_isa_disable+0x16b>
  405d7b:	80 3d ae 86 00 00 00 	cmpb   $0x0,0x86ae(%rip)        # 40e430 <__libirc_isa_info_initialized>
  405d82:	75 05                	jne    405d89 <__libirc_handle_intel_isa_disable+0xd9>
  405d84:	e8 77 f3 ff ff       	callq  405100 <__libirc_isa_init_once>
  405d89:	4d 89 da             	mov    %r11,%r10
  405d8c:	49 83 e2 fe          	and    $0xfffffffffffffffe,%r10
  405d90:	4c 01 ca             	add    %r9,%rdx
  405d93:	48 d1 ea             	shr    %rdx
  405d96:	b9 01 00 00 00       	mov    $0x1,%ecx
  405d9b:	eb 13                	jmp    405db0 <__libirc_handle_intel_isa_disable+0x100>
  405d9d:	0f 1f 00             	nopl   (%rax)
  405da0:	42 80 3c 18 00       	cmpb   $0x0,(%rax,%r11,1)
  405da5:	74 57                	je     405dfe <__libirc_handle_intel_isa_disable+0x14e>
  405da7:	48 ff c1             	inc    %rcx
  405daa:	48 83 f9 47          	cmp    $0x47,%rcx
  405dae:	74 be                	je     405d6e <__libirc_handle_intel_isa_disable+0xbe>
  405db0:	48 8d 04 49          	lea    (%rcx,%rcx,2),%rax
  405db4:	49 8b 44 c0 10       	mov    0x10(%r8,%rax,8),%rax
  405db9:	48 85 c0             	test   %rax,%rax
  405dbc:	74 e9                	je     405da7 <__libirc_handle_intel_isa_disable+0xf7>
  405dbe:	49 83 fb 02          	cmp    $0x2,%r11
  405dc2:	72 28                	jb     405dec <__libirc_handle_intel_isa_disable+0x13c>
  405dc4:	31 f6                	xor    %esi,%esi
  405dc6:	66 2e 0f 1f 84 00 00 	nopw   %cs:0x0(%rax,%rax,1)
  405dcd:	00 00 00 
  405dd0:	0f b6 5c 77 ff       	movzbl -0x1(%rdi,%rsi,2),%ebx
  405dd5:	3a 1c 70             	cmp    (%rax,%rsi,2),%bl
  405dd8:	75 cd                	jne    405da7 <__libirc_handle_intel_isa_disable+0xf7>
  405dda:	0f b6 1c 77          	movzbl (%rdi,%rsi,2),%ebx
  405dde:	3a 5c 70 01          	cmp    0x1(%rax,%rsi,2),%bl
  405de2:	75 c3                	jne    405da7 <__libirc_handle_intel_isa_disable+0xf7>
  405de4:	48 ff c6             	inc    %rsi
  405de7:	48 39 f2             	cmp    %rsi,%rdx
  405dea:	75 e4                	jne    405dd0 <__libirc_handle_intel_isa_disable+0x120>
  405dec:	4d 39 da             	cmp    %r11,%r10
  405def:	73 af                	jae    405da0 <__libirc_handle_intel_isa_disable+0xf0>
  405df1:	43 8a 5c 15 00       	mov    0x0(%r13,%r10,1),%bl
  405df6:	42 3a 1c 10          	cmp    (%rax,%r10,1),%bl
  405dfa:	74 a4                	je     405da0 <__libirc_handle_intel_isa_disable+0xf0>
  405dfc:	eb a9                	jmp    405da7 <__libirc_handle_intel_isa_disable+0xf7>
  405dfe:	83 f9 02             	cmp    $0x2,%ecx
  405e01:	0f 82 67 ff ff ff    	jb     405d6e <__libirc_handle_intel_isa_disable+0xbe>
  405e07:	4c 89 f0             	mov    %r14,%rax
  405e0a:	e8 41 fe ff ff       	callq  405c50 <__libirc_set_cpu_feature>
  405e0f:	83 f8 01             	cmp    $0x1,%eax
  405e12:	49 83 d7 00          	adc    $0x0,%r15
  405e16:	e9 53 ff ff ff       	jmpq   405d6e <__libirc_handle_intel_isa_disable+0xbe>
  405e1b:	44 89 f8             	mov    %r15d,%eax
  405e1e:	5b                   	pop    %rbx
  405e1f:	41 5c                	pop    %r12
  405e21:	41 5d                	pop    %r13
  405e23:	41 5e                	pop    %r14
  405e25:	41 5f                	pop    %r15
  405e27:	c3                   	retq   
  405e28:	0f 1f 84 00 00 00 00 	nopl   0x0(%rax,%rax,1)
  405e2f:	00 

0000000000405e30 <__libirc_get_msg>:
  405e30:	f3 0f 1e fa          	endbr64 
  405e34:	53                   	push   %rbx
  405e35:	48 81 ec d0 00 00 00 	sub    $0xd0,%rsp
  405e3c:	89 f3                	mov    %esi,%ebx
  405e3e:	48 89 54 24 30       	mov    %rdx,0x30(%rsp)
  405e43:	48 89 4c 24 38       	mov    %rcx,0x38(%rsp)
  405e48:	4c 89 44 24 40       	mov    %r8,0x40(%rsp)
  405e4d:	4c 89 4c 24 48       	mov    %r9,0x48(%rsp)
  405e52:	84 c0                	test   %al,%al
  405e54:	74 37                	je     405e8d <__libirc_get_msg+0x5d>
  405e56:	0f 29 44 24 50       	movaps %xmm0,0x50(%rsp)
  405e5b:	0f 29 4c 24 60       	movaps %xmm1,0x60(%rsp)
  405e60:	0f 29 54 24 70       	movaps %xmm2,0x70(%rsp)
  405e65:	0f 29 9c 24 80 00 00 	movaps %xmm3,0x80(%rsp)
  405e6c:	00 
  405e6d:	0f 29 a4 24 90 00 00 	movaps %xmm4,0x90(%rsp)
  405e74:	00 
  405e75:	0f 29 ac 24 a0 00 00 	movaps %xmm5,0xa0(%rsp)
  405e7c:	00 
  405e7d:	0f 29 b4 24 b0 00 00 	movaps %xmm6,0xb0(%rsp)
  405e84:	00 
  405e85:	0f 29 bc 24 c0 00 00 	movaps %xmm7,0xc0(%rsp)
  405e8c:	00 
  405e8d:	e8 5e 00 00 00       	callq  405ef0 <irc_ptr_msg>
  405e92:	85 db                	test   %ebx,%ebx
  405e94:	7e 4c                	jle    405ee2 <__libirc_get_msg+0xb2>
  405e96:	48 8d 4c 24 20       	lea    0x20(%rsp),%rcx
  405e9b:	48 89 4c 24 10       	mov    %rcx,0x10(%rsp)
  405ea0:	48 8d 8c 24 e0 00 00 	lea    0xe0(%rsp),%rcx
  405ea7:	00 
  405ea8:	48 89 4c 24 08       	mov    %rcx,0x8(%rsp)
  405ead:	48 b9 10 00 00 00 30 	movabs $0x3000000010,%rcx
  405eb4:	00 00 00 
  405eb7:	48 89 0c 24          	mov    %rcx,(%rsp)
  405ebb:	48 8d 1d 2e 8c 00 00 	lea    0x8c2e(%rip),%rbx        # 40eaf0 <get_msg_buf>
  405ec2:	49 89 e1             	mov    %rsp,%r9
  405ec5:	be 00 02 00 00       	mov    $0x200,%esi
  405eca:	b9 00 02 00 00       	mov    $0x200,%ecx
  405ecf:	48 89 df             	mov    %rbx,%rdi
  405ed2:	ba 01 00 00 00       	mov    $0x1,%edx
  405ed7:	49 89 c0             	mov    %rax,%r8
  405eda:	e8 41 c2 ff ff       	callq  402120 <__vsnprintf_chk@plt>
  405edf:	48 89 d8             	mov    %rbx,%rax
  405ee2:	48 81 c4 d0 00 00 00 	add    $0xd0,%rsp
  405ee9:	5b                   	pop    %rbx
  405eea:	c3                   	retq   
  405eeb:	0f 1f 44 00 00       	nopl   0x0(%rax,%rax,1)

0000000000405ef0 <irc_ptr_msg>:
  405ef0:	41 57                	push   %r15
  405ef2:	41 56                	push   %r14
  405ef4:	41 54                	push   %r12
  405ef6:	53                   	push   %rbx
  405ef7:	48 81 ec 88 00 00 00 	sub    $0x88,%rsp
  405efe:	64 48 8b 04 25 28 00 	mov    %fs:0x28,%rax
  405f05:	00 00 
  405f07:	48 89 84 24 80 00 00 	mov    %rax,0x80(%rsp)
  405f0e:	00 
  405f0f:	85 ff                	test   %edi,%edi
  405f11:	74 24                	je     405f37 <irc_ptr_msg+0x47>
  405f13:	89 fb                	mov    %edi,%ebx
  405f15:	80 3d d4 8f 00 00 00 	cmpb   $0x0,0x8fd4(%rip)        # 40eef0 <first_msg>
  405f1c:	74 25                	je     405f43 <irc_ptr_msg+0x53>
  405f1e:	80 3d cf 8f 00 00 01 	cmpb   $0x1,0x8fcf(%rip)        # 40eef4 <use_internal_msg>
  405f25:	0f 85 fe 00 00 00    	jne    406029 <irc_ptr_msg+0x139>
  405f2b:	48 8b 3d c6 8f 00 00 	mov    0x8fc6(%rip),%rdi        # 40eef8 <message_catalog>
  405f32:	e9 d1 00 00 00       	jmpq   406008 <irc_ptr_msg+0x118>
  405f37:	48 8d 05 67 39 00 00 	lea    0x3967(%rip),%rax        # 4098a5 <__libm_err_response_table+0xe5>
  405f3e:	e9 f9 00 00 00       	jmpq   40603c <irc_ptr_msg+0x14c>
  405f43:	c6 05 a6 8f 00 00 01 	movb   $0x1,0x8fa6(%rip)        # 40eef0 <first_msg>
  405f4a:	48 8d 3d 84 40 00 00 	lea    0x4084(%rip),%rdi        # 409fd5 <__libm_error_support.__libm_errno_table+0x3e9>
  405f51:	31 f6                	xor    %esi,%esi
  405f53:	e8 68 c1 ff ff       	callq  4020c0 <catopen@plt>
  405f58:	48 89 c7             	mov    %rax,%rdi
  405f5b:	48 89 05 96 8f 00 00 	mov    %rax,0x8f96(%rip)        # 40eef8 <message_catalog>
  405f62:	48 83 f8 ff          	cmp    $0xffffffffffffffff,%rax
  405f66:	0f 85 95 00 00 00    	jne    406001 <irc_ptr_msg+0x111>
  405f6c:	48 8d 3d a7 39 00 00 	lea    0x39a7(%rip),%rdi        # 40991a <__libm_err_response_table+0x15a>
  405f73:	e8 58 c2 ff ff       	callq  4021d0 <getenv@plt>
  405f78:	48 85 c0             	test   %rax,%rax
  405f7b:	74 73                	je     405ff0 <irc_ptr_msg+0x100>
  405f7d:	49 89 e6             	mov    %rsp,%r14
  405f80:	ba 80 00 00 00       	mov    $0x80,%edx
  405f85:	b9 80 00 00 00       	mov    $0x80,%ecx
  405f8a:	4c 89 f7             	mov    %r14,%rdi
  405f8d:	48 89 c6             	mov    %rax,%rsi
  405f90:	e8 5b c1 ff ff       	callq  4020f0 <__strncpy_chk@plt>
  405f95:	4c 89 f7             	mov    %r14,%rdi
  405f98:	be 2e 00 00 00       	mov    $0x2e,%esi
  405f9d:	e8 de c0 ff ff       	callq  402080 <strchr@plt>
  405fa2:	48 85 c0             	test   %rax,%rax
  405fa5:	74 49                	je     405ff0 <irc_ptr_msg+0x100>
  405fa7:	49 89 c6             	mov    %rax,%r14
  405faa:	c6 00 00             	movb   $0x0,(%rax)
  405fad:	4c 8d 3d 66 39 00 00 	lea    0x3966(%rip),%r15        # 40991a <__libm_err_response_table+0x15a>
  405fb4:	49 89 e4             	mov    %rsp,%r12
  405fb7:	4c 89 ff             	mov    %r15,%rdi
  405fba:	4c 89 e6             	mov    %r12,%rsi
  405fbd:	ba 01 00 00 00       	mov    $0x1,%edx
  405fc2:	e8 39 c2 ff ff       	callq  402200 <setenv@plt>
  405fc7:	48 8d 3d 07 40 00 00 	lea    0x4007(%rip),%rdi        # 409fd5 <__libm_error_support.__libm_errno_table+0x3e9>
  405fce:	31 f6                	xor    %esi,%esi
  405fd0:	e8 eb c0 ff ff       	callq  4020c0 <catopen@plt>
  405fd5:	48 89 05 1c 8f 00 00 	mov    %rax,0x8f1c(%rip)        # 40eef8 <message_catalog>
  405fdc:	41 c6 06 2e          	movb   $0x2e,(%r14)
  405fe0:	4c 89 ff             	mov    %r15,%rdi
  405fe3:	4c 89 e6             	mov    %r12,%rsi
  405fe6:	ba 01 00 00 00       	mov    $0x1,%edx
  405feb:	e8 10 c2 ff ff       	callq  402200 <setenv@plt>
  405ff0:	48 8b 3d 01 8f 00 00 	mov    0x8f01(%rip),%rdi        # 40eef8 <message_catalog>
  405ff7:	48 83 ff ff          	cmp    $0xffffffffffffffff,%rdi
  405ffb:	0f 84 1d ff ff ff    	je     405f1e <irc_ptr_msg+0x2e>
  406001:	c6 05 ec 8e 00 00 01 	movb   $0x1,0x8eec(%rip)        # 40eef4 <use_internal_msg>
  406008:	48 63 c3             	movslq %ebx,%rax
  40600b:	48 c1 e0 04          	shl    $0x4,%rax
  40600f:	48 8d 0d aa 79 00 00 	lea    0x79aa(%rip),%rcx        # 40d9c0 <irc_msgtab>
  406016:	48 8b 4c 08 08       	mov    0x8(%rax,%rcx,1),%rcx
  40601b:	be 01 00 00 00       	mov    $0x1,%esi
  406020:	89 da                	mov    %ebx,%edx
  406022:	e8 69 c1 ff ff       	callq  402190 <catgets@plt>
  406027:	eb 13                	jmp    40603c <irc_ptr_msg+0x14c>
  406029:	48 63 c3             	movslq %ebx,%rax
  40602c:	48 c1 e0 04          	shl    $0x4,%rax
  406030:	48 8d 0d 89 79 00 00 	lea    0x7989(%rip),%rcx        # 40d9c0 <irc_msgtab>
  406037:	48 8b 44 08 08       	mov    0x8(%rax,%rcx,1),%rax
  40603c:	64 48 8b 0c 25 28 00 	mov    %fs:0x28,%rcx
  406043:	00 00 
  406045:	48 3b 8c 24 80 00 00 	cmp    0x80(%rsp),%rcx
  40604c:	00 
  40604d:	75 0f                	jne    40605e <irc_ptr_msg+0x16e>
  40604f:	48 81 c4 88 00 00 00 	add    $0x88,%rsp
  406056:	5b                   	pop    %rbx
  406057:	41 5c                	pop    %r12
  406059:	41 5e                	pop    %r14
  40605b:	41 5f                	pop    %r15
  40605d:	c3                   	retq   
  40605e:	e8 3d c1 ff ff       	callq  4021a0 <__stack_chk_fail@plt>
  406063:	66 66 66 66 2e 0f 1f 	data16 data16 data16 nopw %cs:0x0(%rax,%rax,1)
  40606a:	84 00 00 00 00 00 

0000000000406070 <__libirc_print>:
  406070:	f3 0f 1e fa          	endbr64 
  406074:	55                   	push   %rbp
  406075:	53                   	push   %rbx
  406076:	48 81 ec d8 00 00 00 	sub    $0xd8,%rsp
  40607d:	89 fb                	mov    %edi,%ebx
  40607f:	48 89 4c 24 38       	mov    %rcx,0x38(%rsp)
  406084:	4c 89 44 24 40       	mov    %r8,0x40(%rsp)
  406089:	4c 89 4c 24 48       	mov    %r9,0x48(%rsp)
  40608e:	84 c0                	test   %al,%al
  406090:	74 37                	je     4060c9 <__libirc_print+0x59>
  406092:	0f 29 44 24 50       	movaps %xmm0,0x50(%rsp)
  406097:	0f 29 4c 24 60       	movaps %xmm1,0x60(%rsp)
  40609c:	0f 29 54 24 70       	movaps %xmm2,0x70(%rsp)
  4060a1:	0f 29 9c 24 80 00 00 	movaps %xmm3,0x80(%rsp)
  4060a8:	00 
  4060a9:	0f 29 a4 24 90 00 00 	movaps %xmm4,0x90(%rsp)
  4060b0:	00 
  4060b1:	0f 29 ac 24 a0 00 00 	movaps %xmm5,0xa0(%rsp)
  4060b8:	00 
  4060b9:	0f 29 b4 24 b0 00 00 	movaps %xmm6,0xb0(%rsp)
  4060c0:	00 
  4060c1:	0f 29 bc 24 c0 00 00 	movaps %xmm7,0xc0(%rsp)
  4060c8:	00 
  4060c9:	85 f6                	test   %esi,%esi
  4060cb:	0f 84 80 00 00 00    	je     406151 <__libirc_print+0xe1>
  4060d1:	89 d5                	mov    %edx,%ebp
  4060d3:	89 f7                	mov    %esi,%edi
  4060d5:	e8 16 fe ff ff       	callq  405ef0 <irc_ptr_msg>
  4060da:	85 ed                	test   %ebp,%ebp
  4060dc:	7e 4c                	jle    40612a <__libirc_print+0xba>
  4060de:	48 8d 4c 24 20       	lea    0x20(%rsp),%rcx
  4060e3:	48 89 4c 24 10       	mov    %rcx,0x10(%rsp)
  4060e8:	48 8d 8c 24 f0 00 00 	lea    0xf0(%rsp),%rcx
  4060ef:	00 
  4060f0:	48 89 4c 24 08       	mov    %rcx,0x8(%rsp)
  4060f5:	48 b9 18 00 00 00 30 	movabs $0x3000000018,%rcx
  4060fc:	00 00 00 
  4060ff:	48 89 0c 24          	mov    %rcx,(%rsp)
  406103:	48 8d 2d e6 8b 00 00 	lea    0x8be6(%rip),%rbp        # 40ecf0 <print_buf>
  40610a:	49 89 e1             	mov    %rsp,%r9
  40610d:	be 00 02 00 00       	mov    $0x200,%esi
  406112:	b9 00 02 00 00       	mov    $0x200,%ecx
  406117:	48 89 ef             	mov    %rbp,%rdi
  40611a:	ba 01 00 00 00       	mov    $0x1,%edx
  40611f:	49 89 c0             	mov    %rax,%r8
  406122:	e8 f9 bf ff ff       	callq  402120 <__vsnprintf_chk@plt>
  406127:	48 89 e8             	mov    %rbp,%rax
  40612a:	83 fb 01             	cmp    $0x1,%ebx
  40612d:	75 4d                	jne    40617c <__libirc_print+0x10c>
  40612f:	48 8b 0d 9a 7e 00 00 	mov    0x7e9a(%rip),%rcx        # 40dfd0 <stderr@GLIBC_2.2.5>
  406136:	48 8b 39             	mov    (%rcx),%rdi
  406139:	48 8d 15 fb 37 00 00 	lea    0x37fb(%rip),%rdx        # 40993b <__libm_err_response_table+0x17b>
  406140:	be 01 00 00 00       	mov    $0x1,%esi
  406145:	48 89 c1             	mov    %rax,%rcx
  406148:	31 c0                	xor    %eax,%eax
  40614a:	e8 d1 c0 ff ff       	callq  402220 <__fprintf_chk@plt>
  40614f:	eb 41                	jmp    406192 <__libirc_print+0x122>
  406151:	83 fb 01             	cmp    $0x1,%ebx
  406154:	75 46                	jne    40619c <__libirc_print+0x12c>
  406156:	48 8b 05 73 7e 00 00 	mov    0x7e73(%rip),%rax        # 40dfd0 <stderr@GLIBC_2.2.5>
  40615d:	48 8b 38             	mov    (%rax),%rdi
  406160:	48 8d 15 3d 37 00 00 	lea    0x373d(%rip),%rdx        # 4098a4 <__libm_err_response_table+0xe4>
  406167:	be 01 00 00 00       	mov    $0x1,%esi
  40616c:	31 c0                	xor    %eax,%eax
  40616e:	48 81 c4 d8 00 00 00 	add    $0xd8,%rsp
  406175:	5b                   	pop    %rbx
  406176:	5d                   	pop    %rbp
  406177:	e9 a4 c0 ff ff       	jmpq   402220 <__fprintf_chk@plt>
  40617c:	48 8d 35 b8 37 00 00 	lea    0x37b8(%rip),%rsi        # 40993b <__libm_err_response_table+0x17b>
  406183:	bf 01 00 00 00       	mov    $0x1,%edi
  406188:	48 89 c2             	mov    %rax,%rdx
  40618b:	31 c0                	xor    %eax,%eax
  40618d:	e8 9e be ff ff       	callq  402030 <__printf_chk@plt>
  406192:	48 81 c4 d8 00 00 00 	add    $0xd8,%rsp
  406199:	5b                   	pop    %rbx
  40619a:	5d                   	pop    %rbp
  40619b:	c3                   	retq   
  40619c:	48 8d 35 01 37 00 00 	lea    0x3701(%rip),%rsi        # 4098a4 <__libm_err_response_table+0xe4>
  4061a3:	bf 01 00 00 00       	mov    $0x1,%edi
  4061a8:	31 c0                	xor    %eax,%eax
  4061aa:	48 81 c4 d8 00 00 00 	add    $0xd8,%rsp
  4061b1:	5b                   	pop    %rbx
  4061b2:	5d                   	pop    %rbp
  4061b3:	e9 78 be ff ff       	jmpq   402030 <__printf_chk@plt>
  4061b8:	0f 1f 84 00 00 00 00 	nopl   0x0(%rax,%rax,1)
  4061bf:	00 

00000000004061c0 <__libc_csu_init>:
  4061c0:	f3 0f 1e fa          	endbr64 
  4061c4:	41 57                	push   %r15
  4061c6:	4c 8d 3d 8b 73 00 00 	lea    0x738b(%rip),%r15        # 40d558 <__frame_dummy_init_array_entry>
  4061cd:	41 56                	push   %r14
  4061cf:	49 89 d6             	mov    %rdx,%r14
  4061d2:	41 55                	push   %r13
  4061d4:	49 89 f5             	mov    %rsi,%r13
  4061d7:	41 54                	push   %r12
  4061d9:	41 89 fc             	mov    %edi,%r12d
  4061dc:	55                   	push   %rbp
  4061dd:	48 8d 2d 84 73 00 00 	lea    0x7384(%rip),%rbp        # 40d568 <__do_global_dtors_aux_fini_array_entry>
  4061e4:	53                   	push   %rbx
  4061e5:	4c 29 fd             	sub    %r15,%rbp
  4061e8:	48 83 ec 08          	sub    $0x8,%rsp
  4061ec:	e8 0f be ff ff       	callq  402000 <_init>
  4061f1:	48 c1 fd 03          	sar    $0x3,%rbp
  4061f5:	74 1f                	je     406216 <__libc_csu_init+0x56>
  4061f7:	31 db                	xor    %ebx,%ebx
  4061f9:	0f 1f 80 00 00 00 00 	nopl   0x0(%rax)
  406200:	4c 89 f2             	mov    %r14,%rdx
  406203:	4c 89 ee             	mov    %r13,%rsi
  406206:	44 89 e7             	mov    %r12d,%edi
  406209:	41 ff 14 df          	callq  *(%r15,%rbx,8)
  40620d:	48 83 c3 01          	add    $0x1,%rbx
  406211:	48 39 dd             	cmp    %rbx,%rbp
  406214:	75 ea                	jne    406200 <__libc_csu_init+0x40>
  406216:	48 83 c4 08          	add    $0x8,%rsp
  40621a:	5b                   	pop    %rbx
  40621b:	5d                   	pop    %rbp
  40621c:	41 5c                	pop    %r12
  40621e:	41 5d                	pop    %r13
  406220:	41 5e                	pop    %r14
  406222:	41 5f                	pop    %r15
  406224:	c3                   	retq   
  406225:	66 66 2e 0f 1f 84 00 	data16 nopw %cs:0x0(%rax,%rax,1)
  40622c:	00 00 00 00 

0000000000406230 <__libc_csu_fini>:
  406230:	f3 0f 1e fa          	endbr64 
  406234:	c3                   	retq   

Disassembly of section .fini:

0000000000406238 <_fini>:
  406238:	f3 0f 1e fa          	endbr64 
  40623c:	48 83 ec 08          	sub    $0x8,%rsp
  406240:	48 83 c4 08          	add    $0x8,%rsp
  406244:	c3                   	retq   
